
bomb:     file format elf32-i386


Disassembly of section .init:

08048760 <_init>:
 8048760:	53                   	push   %ebx
 8048761:	83 ec 08             	sub    $0x8,%esp
 8048764:	e8 47 02 00 00       	call   80489b0 <__x86.get_pc_thunk.bx>
 8048769:	81 c3 97 48 00 00    	add    $0x4897,%ebx
 804876f:	8b 83 fc ff ff ff    	mov    -0x4(%ebx),%eax
 8048775:	85 c0                	test   %eax,%eax
 8048777:	74 05                	je     804877e <_init+0x1e>
 8048779:	e8 f2 01 00 00       	call   8048970 <__sprintf_chk@plt+0x10>
 804877e:	83 c4 08             	add    $0x8,%esp
 8048781:	5b                   	pop    %ebx
 8048782:	c3                   	ret    

Disassembly of section .plt:

08048790 <read@plt-0x10>:
 8048790:	ff 35 04 d0 04 08    	pushl  0x804d004
 8048796:	ff 25 08 d0 04 08    	jmp    *0x804d008
 804879c:	00 00                	add    %al,(%eax)
	...

080487a0 <read@plt>:
 80487a0:	ff 25 0c d0 04 08    	jmp    *0x804d00c
 80487a6:	68 00 00 00 00       	push   $0x0
 80487ab:	e9 e0 ff ff ff       	jmp    8048790 <_init+0x30>

080487b0 <fflush@plt>:
 80487b0:	ff 25 10 d0 04 08    	jmp    *0x804d010
 80487b6:	68 08 00 00 00       	push   $0x8
 80487bb:	e9 d0 ff ff ff       	jmp    8048790 <_init+0x30>

080487c0 <fgets@plt>:
 80487c0:	ff 25 14 d0 04 08    	jmp    *0x804d014
 80487c6:	68 10 00 00 00       	push   $0x10
 80487cb:	e9 c0 ff ff ff       	jmp    8048790 <_init+0x30>

080487d0 <signal@plt>:
 80487d0:	ff 25 18 d0 04 08    	jmp    *0x804d018
 80487d6:	68 18 00 00 00       	push   $0x18
 80487db:	e9 b0 ff ff ff       	jmp    8048790 <_init+0x30>

080487e0 <sleep@plt>:
 80487e0:	ff 25 1c d0 04 08    	jmp    *0x804d01c
 80487e6:	68 20 00 00 00       	push   $0x20
 80487eb:	e9 a0 ff ff ff       	jmp    8048790 <_init+0x30>

080487f0 <alarm@plt>:
 80487f0:	ff 25 20 d0 04 08    	jmp    *0x804d020
 80487f6:	68 28 00 00 00       	push   $0x28
 80487fb:	e9 90 ff ff ff       	jmp    8048790 <_init+0x30>

08048800 <__stack_chk_fail@plt>:
 8048800:	ff 25 24 d0 04 08    	jmp    *0x804d024
 8048806:	68 30 00 00 00       	push   $0x30
 804880b:	e9 80 ff ff ff       	jmp    8048790 <_init+0x30>

08048810 <strcpy@plt>:
 8048810:	ff 25 28 d0 04 08    	jmp    *0x804d028
 8048816:	68 38 00 00 00       	push   $0x38
 804881b:	e9 70 ff ff ff       	jmp    8048790 <_init+0x30>

08048820 <gethostname@plt>:
 8048820:	ff 25 2c d0 04 08    	jmp    *0x804d02c
 8048826:	68 40 00 00 00       	push   $0x40
 804882b:	e9 60 ff ff ff       	jmp    8048790 <_init+0x30>

08048830 <getenv@plt>:
 8048830:	ff 25 30 d0 04 08    	jmp    *0x804d030
 8048836:	68 48 00 00 00       	push   $0x48
 804883b:	e9 50 ff ff ff       	jmp    8048790 <_init+0x30>

08048840 <malloc@plt>:
 8048840:	ff 25 34 d0 04 08    	jmp    *0x804d034
 8048846:	68 50 00 00 00       	push   $0x50
 804884b:	e9 40 ff ff ff       	jmp    8048790 <_init+0x30>

08048850 <puts@plt>:
 8048850:	ff 25 38 d0 04 08    	jmp    *0x804d038
 8048856:	68 58 00 00 00       	push   $0x58
 804885b:	e9 30 ff ff ff       	jmp    8048790 <_init+0x30>

08048860 <__memmove_chk@plt>:
 8048860:	ff 25 3c d0 04 08    	jmp    *0x804d03c
 8048866:	68 60 00 00 00       	push   $0x60
 804886b:	e9 20 ff ff ff       	jmp    8048790 <_init+0x30>

08048870 <exit@plt>:
 8048870:	ff 25 40 d0 04 08    	jmp    *0x804d040
 8048876:	68 68 00 00 00       	push   $0x68
 804887b:	e9 10 ff ff ff       	jmp    8048790 <_init+0x30>

08048880 <__libc_start_main@plt>:
 8048880:	ff 25 44 d0 04 08    	jmp    *0x804d044
 8048886:	68 70 00 00 00       	push   $0x70
 804888b:	e9 00 ff ff ff       	jmp    8048790 <_init+0x30>

08048890 <write@plt>:
 8048890:	ff 25 48 d0 04 08    	jmp    *0x804d048
 8048896:	68 78 00 00 00       	push   $0x78
 804889b:	e9 f0 fe ff ff       	jmp    8048790 <_init+0x30>

080488a0 <strcasecmp@plt>:
 80488a0:	ff 25 4c d0 04 08    	jmp    *0x804d04c
 80488a6:	68 80 00 00 00       	push   $0x80
 80488ab:	e9 e0 fe ff ff       	jmp    8048790 <_init+0x30>

080488b0 <__isoc99_sscanf@plt>:
 80488b0:	ff 25 50 d0 04 08    	jmp    *0x804d050
 80488b6:	68 88 00 00 00       	push   $0x88
 80488bb:	e9 d0 fe ff ff       	jmp    8048790 <_init+0x30>

080488c0 <fopen@plt>:
 80488c0:	ff 25 54 d0 04 08    	jmp    *0x804d054
 80488c6:	68 90 00 00 00       	push   $0x90
 80488cb:	e9 c0 fe ff ff       	jmp    8048790 <_init+0x30>

080488d0 <__errno_location@plt>:
 80488d0:	ff 25 58 d0 04 08    	jmp    *0x804d058
 80488d6:	68 98 00 00 00       	push   $0x98
 80488db:	e9 b0 fe ff ff       	jmp    8048790 <_init+0x30>

080488e0 <__printf_chk@plt>:
 80488e0:	ff 25 5c d0 04 08    	jmp    *0x804d05c
 80488e6:	68 a0 00 00 00       	push   $0xa0
 80488eb:	e9 a0 fe ff ff       	jmp    8048790 <_init+0x30>

080488f0 <socket@plt>:
 80488f0:	ff 25 60 d0 04 08    	jmp    *0x804d060
 80488f6:	68 a8 00 00 00       	push   $0xa8
 80488fb:	e9 90 fe ff ff       	jmp    8048790 <_init+0x30>

08048900 <__fprintf_chk@plt>:
 8048900:	ff 25 64 d0 04 08    	jmp    *0x804d064
 8048906:	68 b0 00 00 00       	push   $0xb0
 804890b:	e9 80 fe ff ff       	jmp    8048790 <_init+0x30>

08048910 <gethostbyname@plt>:
 8048910:	ff 25 68 d0 04 08    	jmp    *0x804d068
 8048916:	68 b8 00 00 00       	push   $0xb8
 804891b:	e9 70 fe ff ff       	jmp    8048790 <_init+0x30>

08048920 <strtol@plt>:
 8048920:	ff 25 6c d0 04 08    	jmp    *0x804d06c
 8048926:	68 c0 00 00 00       	push   $0xc0
 804892b:	e9 60 fe ff ff       	jmp    8048790 <_init+0x30>

08048930 <connect@plt>:
 8048930:	ff 25 70 d0 04 08    	jmp    *0x804d070
 8048936:	68 c8 00 00 00       	push   $0xc8
 804893b:	e9 50 fe ff ff       	jmp    8048790 <_init+0x30>

08048940 <close@plt>:
 8048940:	ff 25 74 d0 04 08    	jmp    *0x804d074
 8048946:	68 d0 00 00 00       	push   $0xd0
 804894b:	e9 40 fe ff ff       	jmp    8048790 <_init+0x30>

08048950 <__ctype_b_loc@plt>:
 8048950:	ff 25 78 d0 04 08    	jmp    *0x804d078
 8048956:	68 d8 00 00 00       	push   $0xd8
 804895b:	e9 30 fe ff ff       	jmp    8048790 <_init+0x30>

08048960 <__sprintf_chk@plt>:
 8048960:	ff 25 7c d0 04 08    	jmp    *0x804d07c
 8048966:	68 e0 00 00 00       	push   $0xe0
 804896b:	e9 20 fe ff ff       	jmp    8048790 <_init+0x30>

Disassembly of section .plt.got:

08048970 <.plt.got>:
 8048970:	ff 25 fc cf 04 08    	jmp    *0x804cffc
 8048976:	66 90                	xchg   %ax,%ax

Disassembly of section .text:

08048980 <_start>:
 8048980:	31 ed                	xor    %ebp,%ebp
 8048982:	5e                   	pop    %esi
 8048983:	89 e1                	mov    %esp,%ecx
 8048985:	83 e4 f0             	and    $0xfffffff0,%esp
 8048988:	50                   	push   %eax
 8048989:	54                   	push   %esp
 804898a:	52                   	push   %edx
 804898b:	68 e0 a1 04 08       	push   $0x804a1e0
 8048990:	68 80 a1 04 08       	push   $0x804a180
 8048995:	51                   	push   %ecx
 8048996:	56                   	push   %esi
 8048997:	68 7b 8a 04 08       	push   $0x8048a7b
 804899c:	e8 df fe ff ff       	call   8048880 <__libc_start_main@plt>
 80489a1:	f4                   	hlt    
 80489a2:	66 90                	xchg   %ax,%ax
 80489a4:	66 90                	xchg   %ax,%ax
 80489a6:	66 90                	xchg   %ax,%ax
 80489a8:	66 90                	xchg   %ax,%ax
 80489aa:	66 90                	xchg   %ax,%ax
 80489ac:	66 90                	xchg   %ax,%ax
 80489ae:	66 90                	xchg   %ax,%ax

080489b0 <__x86.get_pc_thunk.bx>:
 80489b0:	8b 1c 24             	mov    (%esp),%ebx
 80489b3:	c3                   	ret    
 80489b4:	66 90                	xchg   %ax,%ax
 80489b6:	66 90                	xchg   %ax,%ax
 80489b8:	66 90                	xchg   %ax,%ax
 80489ba:	66 90                	xchg   %ax,%ax
 80489bc:	66 90                	xchg   %ax,%ax
 80489be:	66 90                	xchg   %ax,%ax

080489c0 <deregister_tm_clones>:
 80489c0:	b8 c3 d7 04 08       	mov    $0x804d7c3,%eax
 80489c5:	2d c0 d7 04 08       	sub    $0x804d7c0,%eax
 80489ca:	83 f8 06             	cmp    $0x6,%eax
 80489cd:	76 1a                	jbe    80489e9 <deregister_tm_clones+0x29>
 80489cf:	b8 00 00 00 00       	mov    $0x0,%eax
 80489d4:	85 c0                	test   %eax,%eax
 80489d6:	74 11                	je     80489e9 <deregister_tm_clones+0x29>
 80489d8:	55                   	push   %ebp
 80489d9:	89 e5                	mov    %esp,%ebp
 80489db:	83 ec 14             	sub    $0x14,%esp
 80489de:	68 c0 d7 04 08       	push   $0x804d7c0
 80489e3:	ff d0                	call   *%eax
 80489e5:	83 c4 10             	add    $0x10,%esp
 80489e8:	c9                   	leave  
 80489e9:	f3 c3                	repz ret 
 80489eb:	90                   	nop
 80489ec:	8d 74 26 00          	lea    0x0(%esi,%eiz,1),%esi

080489f0 <register_tm_clones>:
 80489f0:	b8 c0 d7 04 08       	mov    $0x804d7c0,%eax
 80489f5:	2d c0 d7 04 08       	sub    $0x804d7c0,%eax
 80489fa:	c1 f8 02             	sar    $0x2,%eax
 80489fd:	89 c2                	mov    %eax,%edx
 80489ff:	c1 ea 1f             	shr    $0x1f,%edx
 8048a02:	01 d0                	add    %edx,%eax
 8048a04:	d1 f8                	sar    %eax
 8048a06:	74 1b                	je     8048a23 <register_tm_clones+0x33>
 8048a08:	ba 00 00 00 00       	mov    $0x0,%edx
 8048a0d:	85 d2                	test   %edx,%edx
 8048a0f:	74 12                	je     8048a23 <register_tm_clones+0x33>
 8048a11:	55                   	push   %ebp
 8048a12:	89 e5                	mov    %esp,%ebp
 8048a14:	83 ec 10             	sub    $0x10,%esp
 8048a17:	50                   	push   %eax
 8048a18:	68 c0 d7 04 08       	push   $0x804d7c0
 8048a1d:	ff d2                	call   *%edx
 8048a1f:	83 c4 10             	add    $0x10,%esp
 8048a22:	c9                   	leave  
 8048a23:	f3 c3                	repz ret 
 8048a25:	8d 74 26 00          	lea    0x0(%esi,%eiz,1),%esi
 8048a29:	8d bc 27 00 00 00 00 	lea    0x0(%edi,%eiz,1),%edi

08048a30 <__do_global_dtors_aux>:
 8048a30:	80 3d e8 d7 04 08 00 	cmpb   $0x0,0x804d7e8
 8048a37:	75 13                	jne    8048a4c <__do_global_dtors_aux+0x1c>
 8048a39:	55                   	push   %ebp
 8048a3a:	89 e5                	mov    %esp,%ebp
 8048a3c:	83 ec 08             	sub    $0x8,%esp
 8048a3f:	e8 7c ff ff ff       	call   80489c0 <deregister_tm_clones>
 8048a44:	c6 05 e8 d7 04 08 01 	movb   $0x1,0x804d7e8
 8048a4b:	c9                   	leave  
 8048a4c:	f3 c3                	repz ret 
 8048a4e:	66 90                	xchg   %ax,%ax

08048a50 <frame_dummy>:
 8048a50:	b8 10 cf 04 08       	mov    $0x804cf10,%eax
 8048a55:	8b 10                	mov    (%eax),%edx
 8048a57:	85 d2                	test   %edx,%edx
 8048a59:	75 05                	jne    8048a60 <frame_dummy+0x10>
 8048a5b:	eb 93                	jmp    80489f0 <register_tm_clones>
 8048a5d:	8d 76 00             	lea    0x0(%esi),%esi
 8048a60:	ba 00 00 00 00       	mov    $0x0,%edx
 8048a65:	85 d2                	test   %edx,%edx
 8048a67:	74 f2                	je     8048a5b <frame_dummy+0xb>
 8048a69:	55                   	push   %ebp
 8048a6a:	89 e5                	mov    %esp,%ebp
 8048a6c:	83 ec 14             	sub    $0x14,%esp
 8048a6f:	50                   	push   %eax
 8048a70:	ff d2                	call   *%edx
 8048a72:	83 c4 10             	add    $0x10,%esp
 8048a75:	c9                   	leave  
 8048a76:	e9 75 ff ff ff       	jmp    80489f0 <register_tm_clones>

08048a7b <main>:
 8048a7b:	8d 4c 24 04          	lea    0x4(%esp),%ecx
 8048a7f:	83 e4 f0             	and    $0xfffffff0,%esp
 8048a82:	ff 71 fc             	pushl  -0x4(%ecx)
 8048a85:	55                   	push   %ebp
 8048a86:	89 e5                	mov    %esp,%ebp
 8048a88:	53                   	push   %ebx
 8048a89:	51                   	push   %ecx
 8048a8a:	8b 01                	mov    (%ecx),%eax
 8048a8c:	8b 59 04             	mov    0x4(%ecx),%ebx
 8048a8f:	83 f8 01             	cmp    $0x1,%eax
 8048a92:	75 0c                	jne    8048aa0 <main+0x25>
 8048a94:	a1 e0 d7 04 08       	mov    0x804d7e0,%eax
 8048a99:	a3 f0 d7 04 08       	mov    %eax,0x804d7f0
 8048a9e:	eb 5b                	jmp    8048afb <main+0x80>
 8048aa0:	83 f8 02             	cmp    $0x2,%eax
 8048aa3:	75 39                	jne    8048ade <main+0x63>
 8048aa5:	83 ec 08             	sub    $0x8,%esp
 8048aa8:	68 08 a2 04 08       	push   $0x804a208
 8048aad:	ff 73 04             	pushl  0x4(%ebx)
 8048ab0:	e8 0b fe ff ff       	call   80488c0 <fopen@plt>
 8048ab5:	a3 f0 d7 04 08       	mov    %eax,0x804d7f0
 8048aba:	83 c4 10             	add    $0x10,%esp
 8048abd:	85 c0                	test   %eax,%eax
 8048abf:	75 3a                	jne    8048afb <main+0x80>
 8048ac1:	ff 73 04             	pushl  0x4(%ebx)
 8048ac4:	ff 33                	pushl  (%ebx)
 8048ac6:	68 0a a2 04 08       	push   $0x804a20a
 8048acb:	6a 01                	push   $0x1
 8048acd:	e8 0e fe ff ff       	call   80488e0 <__printf_chk@plt>
 8048ad2:	c7 04 24 08 00 00 00 	movl   $0x8,(%esp)
 8048ad9:	e8 92 fd ff ff       	call   8048870 <exit@plt>
 8048ade:	83 ec 04             	sub    $0x4,%esp
 8048ae1:	ff 33                	pushl  (%ebx)
 8048ae3:	68 27 a2 04 08       	push   $0x804a227
 8048ae8:	6a 01                	push   $0x1
 8048aea:	e8 f1 fd ff ff       	call   80488e0 <__printf_chk@plt>
 8048aef:	c7 04 24 08 00 00 00 	movl   $0x8,(%esp)
 8048af6:	e8 75 fd ff ff       	call   8048870 <exit@plt>
 8048afb:	e8 32 07 00 00       	call   8049232 <initialize_bomb>
 8048b00:	83 ec 0c             	sub    $0xc,%esp
 8048b03:	68 98 a2 04 08       	push   $0x804a298
 8048b08:	e8 43 fd ff ff       	call   8048850 <puts@plt>
 8048b0d:	c7 04 24 d4 a2 04 08 	movl   $0x804a2d4,(%esp)
 8048b14:	e8 37 fd ff ff       	call   8048850 <puts@plt>
 8048b19:	e8 e1 09 00 00       	call   80494ff <read_line>
 8048b1e:	89 04 24             	mov    %eax,(%esp)
 8048b21:	e8 07 01 00 00       	call   8048c2d <phase_1>
 8048b26:	e8 cd 0a 00 00       	call   80495f8 <phase_defused>
 8048b2b:	c7 04 24 00 a3 04 08 	movl   $0x804a300,(%esp)
 8048b32:	e8 19 fd ff ff       	call   8048850 <puts@plt>
 8048b37:	e8 c3 09 00 00       	call   80494ff <read_line>
 8048b3c:	89 04 24             	mov    %eax,(%esp)
 8048b3f:	e8 45 01 00 00       	call   8048c89 <phase_2>
 8048b44:	e8 af 0a 00 00       	call   80495f8 <phase_defused>
 8048b49:	c7 04 24 41 a2 04 08 	movl   $0x804a241,(%esp)
 8048b50:	e8 fb fc ff ff       	call   8048850 <puts@plt>
 8048b55:	e8 a5 09 00 00       	call   80494ff <read_line>
 8048b5a:	89 04 24             	mov    %eax,(%esp)
 8048b5d:	e8 48 01 00 00       	call   8048caa <phase_3>
 8048b62:	e8 91 0a 00 00       	call   80495f8 <phase_defused>
 8048b67:	c7 04 24 5f a2 04 08 	movl   $0x804a25f,(%esp)
 8048b6e:	e8 dd fc ff ff       	call   8048850 <puts@plt>
 8048b73:	e8 87 09 00 00       	call   80494ff <read_line>
 8048b78:	89 04 24             	mov    %eax,(%esp)
 8048b7b:	e8 b9 01 00 00       	call   8048d39 <phase_4>
 8048b80:	e8 73 0a 00 00       	call   80495f8 <phase_defused>
 8048b85:	c7 04 24 2c a3 04 08 	movl   $0x804a32c,(%esp)
 8048b8c:	e8 bf fc ff ff       	call   8048850 <puts@plt>
 8048b91:	e8 69 09 00 00       	call   80494ff <read_line>
 8048b96:	89 04 24             	mov    %eax,(%esp)
 8048b99:	e8 06 02 00 00       	call   8048da4 <phase_5>
 8048b9e:	e8 55 0a 00 00       	call   80495f8 <phase_defused>
 8048ba3:	c7 04 24 70 a2 04 08 	movl   $0x804a270,(%esp)
 8048baa:	e8 a1 fc ff ff       	call   8048850 <puts@plt>
 8048baf:	e8 4b 09 00 00       	call   80494ff <read_line>
 8048bb4:	89 04 24             	mov    %eax,(%esp)
 8048bb7:	e8 fe 02 00 00       	call   8048eba <phase_6>
 8048bbc:	e8 37 0a 00 00       	call   80495f8 <phase_defused>
 8048bc1:	c7 04 24 50 a3 04 08 	movl   $0x804a350,(%esp)
 8048bc8:	e8 83 fc ff ff       	call   8048850 <puts@plt>
 8048bcd:	e8 2d 09 00 00       	call   80494ff <read_line>
 8048bd2:	89 04 24             	mov    %eax,(%esp)
 8048bd5:	e8 52 03 00 00       	call   8048f2c <phase_7>
 8048bda:	e8 19 0a 00 00       	call   80495f8 <phase_defused>
 8048bdf:	c7 04 24 70 a3 04 08 	movl   $0x804a370,(%esp)
 8048be6:	e8 65 fc ff ff       	call   8048850 <puts@plt>
 8048beb:	e8 0f 09 00 00       	call   80494ff <read_line>
 8048bf0:	89 04 24             	mov    %eax,(%esp)
 8048bf3:	e8 c1 03 00 00       	call   8048fb9 <phase_8>
 8048bf8:	e8 fb 09 00 00       	call   80495f8 <phase_defused>
 8048bfd:	c7 04 24 8e a2 04 08 	movl   $0x804a28e,(%esp)
 8048c04:	e8 47 fc ff ff       	call   8048850 <puts@plt>
 8048c09:	e8 f1 08 00 00       	call   80494ff <read_line>
 8048c0e:	89 04 24             	mov    %eax,(%esp)
 8048c11:	e8 da 04 00 00       	call   80490f0 <phase_9>
 8048c16:	e8 dd 09 00 00       	call   80495f8 <phase_defused>
 8048c1b:	83 c4 10             	add    $0x10,%esp
 8048c1e:	b8 00 00 00 00       	mov    $0x0,%eax
 8048c23:	8d 65 f8             	lea    -0x8(%ebp),%esp
 8048c26:	59                   	pop    %ecx
 8048c27:	5b                   	pop    %ebx
 8048c28:	5d                   	pop    %ebp
 8048c29:	8d 61 fc             	lea    -0x4(%ecx),%esp
 8048c2c:	c3                   	ret    

08048c2d <phase_1>:
 8048c2d:	83 ec 20             	sub    $0x20,%esp
 8048c30:	65 a1 14 00 00 00    	mov    %gs:0x14,%eax
 8048c36:	89 44 24 10          	mov    %eax,0x10(%esp)
 8048c3a:	31 c0                	xor    %eax,%eax
 8048c3c:	c7 44 24 0c 00 00 00 	movl   $0x0,0xc(%esp)
 8048c43:	00 
 8048c44:	8d 44 24 0c          	lea    0xc(%esp),%eax
 8048c48:	50                   	push   %eax
 8048c49:	68 44 a6 04 08       	push   $0x804a644
 8048c4e:	ff 74 24 2c          	pushl  0x2c(%esp)
 8048c52:	e8 59 fc ff ff       	call   80488b0 <__isoc99_sscanf@plt>
 8048c57:	83 c4 10             	add    $0x10,%esp
 8048c5a:	83 f8 01             	cmp    $0x1,%eax
 8048c5d:	74 05                	je     8048c64 <phase_1+0x37>
 8048c5f:	e8 23 08 00 00       	call   8049487 <explode_bomb>
 8048c64:	81 7c 24 08 6e 01 00 	cmpl   $0x16e,0x8(%esp)
 8048c6b:	00 
 8048c6c:	74 05                	je     8048c73 <phase_1+0x46>
 8048c6e:	e8 14 08 00 00       	call   8049487 <explode_bomb>
 8048c73:	8b 44 24 0c          	mov    0xc(%esp),%eax
 8048c77:	65 33 05 14 00 00 00 	xor    %gs:0x14,%eax
 8048c7e:	74 05                	je     8048c85 <phase_1+0x58>
 8048c80:	e8 7b fb ff ff       	call   8048800 <__stack_chk_fail@plt>
 8048c85:	83 c4 1c             	add    $0x1c,%esp
 8048c88:	c3                   	ret    

08048c89 <phase_2>:
 8048c89:	83 ec 14             	sub    $0x14,%esp
 8048c8c:	68 90 a3 04 08       	push   $0x804a390
 8048c91:	ff 74 24 1c          	pushl  0x1c(%esp)
 8048c95:	e8 33 05 00 00       	call   80491cd <strings_not_equal>
 8048c9a:	83 c4 10             	add    $0x10,%esp
 8048c9d:	85 c0                	test   %eax,%eax
 8048c9f:	74 05                	je     8048ca6 <phase_2+0x1d>
 8048ca1:	e8 e1 07 00 00       	call   8049487 <explode_bomb>
 8048ca6:	83 c4 0c             	add    $0xc,%esp
 8048ca9:	c3                   	ret    

08048caa <phase_3>:
 8048caa:	83 ec 18             	sub    $0x18,%esp
 8048cad:	68 c4 a3 04 08       	push   $0x804a3c4
 8048cb2:	e8 f7 04 00 00       	call   80491ae <string_length>
 8048cb7:	83 c0 01             	add    $0x1,%eax
 8048cba:	89 04 24             	mov    %eax,(%esp)
 8048cbd:	e8 7e fb ff ff       	call   8048840 <malloc@plt>
 8048cc2:	c7 00 57 68 65 6e    	movl   $0x6e656857,(%eax)
 8048cc8:	c7 40 04 20 49 20 67 	movl   $0x67204920,0x4(%eax)
 8048ccf:	c7 40 08 65 74 20 61 	movl   $0x61207465,0x8(%eax)
 8048cd6:	c7 40 0c 6e 67 72 79 	movl   $0x7972676e,0xc(%eax)
 8048cdd:	c7 40 10 2c 20 4d 72 	movl   $0x724d202c,0x10(%eax)
 8048ce4:	c7 40 14 2e 20 42 69 	movl   $0x6942202e,0x14(%eax)
 8048ceb:	c7 40 18 67 67 6c 65 	movl   $0x656c6767,0x18(%eax)
 8048cf2:	c7 40 1c 73 77 6f 72 	movl   $0x726f7773,0x1c(%eax)
 8048cf9:	c7 40 20 74 68 20 67 	movl   $0x67206874,0x20(%eax)
 8048d00:	c7 40 24 65 74 73 20 	movl   $0x20737465,0x24(%eax)
 8048d07:	c7 40 28 75 70 73 65 	movl   $0x65737075,0x28(%eax)
 8048d0e:	66 c7 40 2c 74 2e    	movw   $0x2e74,0x2c(%eax)
 8048d14:	c6 40 2e 00          	movb   $0x0,0x2e(%eax)
 8048d18:	c6 40 04 61          	movb   $0x61,0x4(%eax)
 8048d1c:	83 c4 08             	add    $0x8,%esp
 8048d1f:	50                   	push   %eax
 8048d20:	ff 74 24 1c          	pushl  0x1c(%esp)
 8048d24:	e8 a4 04 00 00       	call   80491cd <strings_not_equal>
 8048d29:	83 c4 10             	add    $0x10,%esp
 8048d2c:	85 c0                	test   %eax,%eax
 8048d2e:	74 05                	je     8048d35 <phase_3+0x8b>
 8048d30:	e8 52 07 00 00       	call   8049487 <explode_bomb>
 8048d35:	83 c4 0c             	add    $0xc,%esp
 8048d38:	c3                   	ret    

08048d39 <phase_4>:
 8048d39:	56                   	push   %esi
 8048d3a:	53                   	push   %ebx
 8048d3b:	83 ec 2c             	sub    $0x2c,%esp
 8048d3e:	65 a1 14 00 00 00    	mov    %gs:0x14,%eax
 8048d44:	89 44 24 24          	mov    %eax,0x24(%esp)
 8048d48:	31 c0                	xor    %eax,%eax
 8048d4a:	8d 44 24 0c          	lea    0xc(%esp),%eax
 8048d4e:	50                   	push   %eax
 8048d4f:	ff 74 24 3c          	pushl  0x3c(%esp)
 8048d53:	e8 6c 07 00 00       	call   80494c4 <read_six_numbers>
 8048d58:	83 c4 10             	add    $0x10,%esp
 8048d5b:	83 7c 24 04 05       	cmpl   $0x5,0x4(%esp)
 8048d60:	75 07                	jne    8048d69 <phase_4+0x30>
 8048d62:	83 7c 24 08 08       	cmpl   $0x8,0x8(%esp)
 8048d67:	74 05                	je     8048d6e <phase_4+0x35>
 8048d69:	e8 19 07 00 00       	call   8049487 <explode_bomb>
 8048d6e:	8d 5c 24 04          	lea    0x4(%esp),%ebx
 8048d72:	8d 74 24 14          	lea    0x14(%esp),%esi
 8048d76:	8b 43 04             	mov    0x4(%ebx),%eax
 8048d79:	03 03                	add    (%ebx),%eax
 8048d7b:	39 43 08             	cmp    %eax,0x8(%ebx)
 8048d7e:	74 05                	je     8048d85 <phase_4+0x4c>
 8048d80:	e8 02 07 00 00       	call   8049487 <explode_bomb>
 8048d85:	83 c3 04             	add    $0x4,%ebx
 8048d88:	39 f3                	cmp    %esi,%ebx
 8048d8a:	75 ea                	jne    8048d76 <phase_4+0x3d>
 8048d8c:	8b 44 24 1c          	mov    0x1c(%esp),%eax
 8048d90:	65 33 05 14 00 00 00 	xor    %gs:0x14,%eax
 8048d97:	74 05                	je     8048d9e <phase_4+0x65>
 8048d99:	e8 62 fa ff ff       	call   8048800 <__stack_chk_fail@plt>
 8048d9e:	83 c4 24             	add    $0x24,%esp
 8048da1:	5b                   	pop    %ebx
 8048da2:	5e                   	pop    %esi
 8048da3:	c3                   	ret    

08048da4 <phase_5>:
 8048da4:	83 ec 1c             	sub    $0x1c,%esp
 8048da7:	65 a1 14 00 00 00    	mov    %gs:0x14,%eax
 8048dad:	89 44 24 0c          	mov    %eax,0xc(%esp)
 8048db1:	31 c0                	xor    %eax,%eax
 8048db3:	8d 44 24 08          	lea    0x8(%esp),%eax
 8048db7:	50                   	push   %eax
 8048db8:	8d 44 24 08          	lea    0x8(%esp),%eax
 8048dbc:	50                   	push   %eax
 8048dbd:	68 41 a6 04 08       	push   $0x804a641
 8048dc2:	ff 74 24 2c          	pushl  0x2c(%esp)
 8048dc6:	e8 e5 fa ff ff       	call   80488b0 <__isoc99_sscanf@plt>
 8048dcb:	83 c4 10             	add    $0x10,%esp
 8048dce:	83 f8 01             	cmp    $0x1,%eax
 8048dd1:	7f 05                	jg     8048dd8 <phase_5+0x34>
 8048dd3:	e8 af 06 00 00       	call   8049487 <explode_bomb>
 8048dd8:	83 7c 24 04 07       	cmpl   $0x7,0x4(%esp)
 8048ddd:	77 66                	ja     8048e45 <phase_5+0xa1>
 8048ddf:	8b 44 24 04          	mov    0x4(%esp),%eax
 8048de3:	ff 24 85 00 a4 04 08 	jmp    *0x804a400(,%eax,4)
 8048dea:	b8 b8 02 00 00       	mov    $0x2b8,%eax
 8048def:	eb 05                	jmp    8048df6 <phase_5+0x52>
 8048df1:	b8 00 00 00 00       	mov    $0x0,%eax
 8048df6:	2d f1 01 00 00       	sub    $0x1f1,%eax
 8048dfb:	eb 05                	jmp    8048e02 <phase_5+0x5e>
 8048dfd:	b8 00 00 00 00       	mov    $0x0,%eax
 8048e02:	05 45 02 00 00       	add    $0x245,%eax
 8048e07:	eb 05                	jmp    8048e0e <phase_5+0x6a>
 8048e09:	b8 00 00 00 00       	mov    $0x0,%eax
 8048e0e:	2d 1d 03 00 00       	sub    $0x31d,%eax
 8048e13:	eb 05                	jmp    8048e1a <phase_5+0x76>
 8048e15:	b8 00 00 00 00       	mov    $0x0,%eax
 8048e1a:	05 1d 03 00 00       	add    $0x31d,%eax
 8048e1f:	eb 05                	jmp    8048e26 <phase_5+0x82>
 8048e21:	b8 00 00 00 00       	mov    $0x0,%eax
 8048e26:	2d 1d 03 00 00       	sub    $0x31d,%eax
 8048e2b:	eb 05                	jmp    8048e32 <phase_5+0x8e>
 8048e2d:	b8 00 00 00 00       	mov    $0x0,%eax
 8048e32:	05 1d 03 00 00       	add    $0x31d,%eax
 8048e37:	eb 05                	jmp    8048e3e <phase_5+0x9a>
 8048e39:	b8 00 00 00 00       	mov    $0x0,%eax
 8048e3e:	2d 1d 03 00 00       	sub    $0x31d,%eax
 8048e43:	eb 0a                	jmp    8048e4f <phase_5+0xab>
 8048e45:	e8 3d 06 00 00       	call   8049487 <explode_bomb>
 8048e4a:	b8 00 00 00 00       	mov    $0x0,%eax
 8048e4f:	83 7c 24 04 05       	cmpl   $0x5,0x4(%esp)
 8048e54:	7f 06                	jg     8048e5c <phase_5+0xb8>
 8048e56:	3b 44 24 08          	cmp    0x8(%esp),%eax
 8048e5a:	74 05                	je     8048e61 <phase_5+0xbd>
 8048e5c:	e8 26 06 00 00       	call   8049487 <explode_bomb>
 8048e61:	8b 44 24 0c          	mov    0xc(%esp),%eax
 8048e65:	65 33 05 14 00 00 00 	xor    %gs:0x14,%eax
 8048e6c:	74 05                	je     8048e73 <phase_5+0xcf>
 8048e6e:	e8 8d f9 ff ff       	call   8048800 <__stack_chk_fail@plt>
 8048e73:	83 c4 1c             	add    $0x1c,%esp
 8048e76:	c3                   	ret    

08048e77 <func6>:
 8048e77:	57                   	push   %edi
 8048e78:	56                   	push   %esi
 8048e79:	53                   	push   %ebx
 8048e7a:	8b 5c 24 10          	mov    0x10(%esp),%ebx
 8048e7e:	8b 7c 24 14          	mov    0x14(%esp),%edi
 8048e82:	85 db                	test   %ebx,%ebx
 8048e84:	7e 2b                	jle    8048eb1 <func6+0x3a>
 8048e86:	89 f8                	mov    %edi,%eax
 8048e88:	83 fb 01             	cmp    $0x1,%ebx
 8048e8b:	74 29                	je     8048eb6 <func6+0x3f>
 8048e8d:	83 ec 08             	sub    $0x8,%esp
 8048e90:	57                   	push   %edi
 8048e91:	8d 43 ff             	lea    -0x1(%ebx),%eax
 8048e94:	50                   	push   %eax
 8048e95:	e8 dd ff ff ff       	call   8048e77 <func6>
 8048e9a:	83 c4 08             	add    $0x8,%esp
 8048e9d:	8d 34 07             	lea    (%edi,%eax,1),%esi
 8048ea0:	57                   	push   %edi
 8048ea1:	83 eb 02             	sub    $0x2,%ebx
 8048ea4:	53                   	push   %ebx
 8048ea5:	e8 cd ff ff ff       	call   8048e77 <func6>
 8048eaa:	83 c4 10             	add    $0x10,%esp
 8048ead:	01 f0                	add    %esi,%eax
 8048eaf:	eb 05                	jmp    8048eb6 <func6+0x3f>
 8048eb1:	b8 00 00 00 00       	mov    $0x0,%eax
 8048eb6:	5b                   	pop    %ebx
 8048eb7:	5e                   	pop    %esi
 8048eb8:	5f                   	pop    %edi
 8048eb9:	c3                   	ret    

08048eba <phase_6>:
 8048eba:	83 ec 1c             	sub    $0x1c,%esp
 8048ebd:	65 a1 14 00 00 00    	mov    %gs:0x14,%eax
 8048ec3:	89 44 24 0c          	mov    %eax,0xc(%esp)
 8048ec7:	31 c0                	xor    %eax,%eax
 8048ec9:	8d 44 24 04          	lea    0x4(%esp),%eax
 8048ecd:	50                   	push   %eax
 8048ece:	8d 44 24 0c          	lea    0xc(%esp),%eax
 8048ed2:	50                   	push   %eax
 8048ed3:	68 41 a6 04 08       	push   $0x804a641
 8048ed8:	ff 74 24 2c          	pushl  0x2c(%esp)
 8048edc:	e8 cf f9 ff ff       	call   80488b0 <__isoc99_sscanf@plt>
 8048ee1:	83 c4 10             	add    $0x10,%esp
 8048ee4:	83 f8 02             	cmp    $0x2,%eax
 8048ee7:	75 0c                	jne    8048ef5 <phase_6+0x3b>
 8048ee9:	8b 44 24 04          	mov    0x4(%esp),%eax
 8048eed:	83 e8 02             	sub    $0x2,%eax
 8048ef0:	83 f8 02             	cmp    $0x2,%eax
 8048ef3:	76 05                	jbe    8048efa <phase_6+0x40>
 8048ef5:	e8 8d 05 00 00       	call   8049487 <explode_bomb>
 8048efa:	83 ec 08             	sub    $0x8,%esp
 8048efd:	ff 74 24 0c          	pushl  0xc(%esp)
 8048f01:	6a 05                	push   $0x5
 8048f03:	e8 6f ff ff ff       	call   8048e77 <func6>
 8048f08:	83 c4 10             	add    $0x10,%esp
 8048f0b:	3b 44 24 08          	cmp    0x8(%esp),%eax
 8048f0f:	74 05                	je     8048f16 <phase_6+0x5c>
 8048f11:	e8 71 05 00 00       	call   8049487 <explode_bomb>
 8048f16:	8b 44 24 0c          	mov    0xc(%esp),%eax
 8048f1a:	65 33 05 14 00 00 00 	xor    %gs:0x14,%eax
 8048f21:	74 05                	je     8048f28 <phase_6+0x6e>
 8048f23:	e8 d8 f8 ff ff       	call   8048800 <__stack_chk_fail@plt>
 8048f28:	83 c4 1c             	add    $0x1c,%esp
 8048f2b:	c3                   	ret    

08048f2c <phase_7>:
 8048f2c:	83 ec 1c             	sub    $0x1c,%esp
 8048f2f:	65 a1 14 00 00 00    	mov    %gs:0x14,%eax
 8048f35:	89 44 24 0c          	mov    %eax,0xc(%esp)
 8048f39:	31 c0                	xor    %eax,%eax
 8048f3b:	8d 44 24 08          	lea    0x8(%esp),%eax
 8048f3f:	50                   	push   %eax
 8048f40:	8d 44 24 08          	lea    0x8(%esp),%eax
 8048f44:	50                   	push   %eax
 8048f45:	68 41 a6 04 08       	push   $0x804a641
 8048f4a:	ff 74 24 2c          	pushl  0x2c(%esp)
 8048f4e:	e8 5d f9 ff ff       	call   80488b0 <__isoc99_sscanf@plt>
 8048f53:	83 c4 10             	add    $0x10,%esp
 8048f56:	83 f8 01             	cmp    $0x1,%eax
 8048f59:	7f 05                	jg     8048f60 <phase_7+0x34>
 8048f5b:	e8 27 05 00 00       	call   8049487 <explode_bomb>
 8048f60:	8b 44 24 04          	mov    0x4(%esp),%eax
 8048f64:	83 e0 0f             	and    $0xf,%eax
 8048f67:	89 44 24 04          	mov    %eax,0x4(%esp)
 8048f6b:	83 f8 0f             	cmp    $0xf,%eax
 8048f6e:	74 2e                	je     8048f9e <phase_7+0x72>
 8048f70:	b9 00 00 00 00       	mov    $0x0,%ecx
 8048f75:	ba 00 00 00 00       	mov    $0x0,%edx
 8048f7a:	83 c2 01             	add    $0x1,%edx
 8048f7d:	8b 04 85 20 a4 04 08 	mov    0x804a420(,%eax,4),%eax
 8048f84:	01 c1                	add    %eax,%ecx
 8048f86:	83 f8 0f             	cmp    $0xf,%eax
 8048f89:	75 ef                	jne    8048f7a <phase_7+0x4e>
 8048f8b:	c7 44 24 04 0f 00 00 	movl   $0xf,0x4(%esp)
 8048f92:	00 
 8048f93:	83 fa 0f             	cmp    $0xf,%edx
 8048f96:	75 06                	jne    8048f9e <phase_7+0x72>
 8048f98:	3b 4c 24 08          	cmp    0x8(%esp),%ecx
 8048f9c:	74 05                	je     8048fa3 <phase_7+0x77>
 8048f9e:	e8 e4 04 00 00       	call   8049487 <explode_bomb>
 8048fa3:	8b 44 24 0c          	mov    0xc(%esp),%eax
 8048fa7:	65 33 05 14 00 00 00 	xor    %gs:0x14,%eax
 8048fae:	74 05                	je     8048fb5 <phase_7+0x89>
 8048fb0:	e8 4b f8 ff ff       	call   8048800 <__stack_chk_fail@plt>
 8048fb5:	83 c4 1c             	add    $0x1c,%esp
 8048fb8:	c3                   	ret    

08048fb9 <phase_8>:
 8048fb9:	56                   	push   %esi
 8048fba:	53                   	push   %ebx
 8048fbb:	83 ec 4c             	sub    $0x4c,%esp
 8048fbe:	65 a1 14 00 00 00    	mov    %gs:0x14,%eax
 8048fc4:	89 44 24 44          	mov    %eax,0x44(%esp)
 8048fc8:	31 c0                	xor    %eax,%eax
 8048fca:	8d 44 24 14          	lea    0x14(%esp),%eax
 8048fce:	50                   	push   %eax
 8048fcf:	ff 74 24 5c          	pushl  0x5c(%esp)
 8048fd3:	e8 ec 04 00 00       	call   80494c4 <read_six_numbers>
 8048fd8:	83 c4 10             	add    $0x10,%esp
 8048fdb:	be 00 00 00 00       	mov    $0x0,%esi
 8048fe0:	8b 44 b4 0c          	mov    0xc(%esp,%esi,4),%eax
 8048fe4:	83 e8 01             	sub    $0x1,%eax
 8048fe7:	83 f8 05             	cmp    $0x5,%eax
 8048fea:	76 05                	jbe    8048ff1 <phase_8+0x38>
 8048fec:	e8 96 04 00 00       	call   8049487 <explode_bomb>
 8048ff1:	83 c6 01             	add    $0x1,%esi
 8048ff4:	83 fe 06             	cmp    $0x6,%esi
 8048ff7:	74 33                	je     804902c <phase_8+0x73>
 8048ff9:	89 f3                	mov    %esi,%ebx
 8048ffb:	8b 44 9c 0c          	mov    0xc(%esp,%ebx,4),%eax
 8048fff:	39 44 b4 08          	cmp    %eax,0x8(%esp,%esi,4)
 8049003:	75 05                	jne    804900a <phase_8+0x51>
 8049005:	e8 7d 04 00 00       	call   8049487 <explode_bomb>
 804900a:	83 c3 01             	add    $0x1,%ebx
 804900d:	83 fb 05             	cmp    $0x5,%ebx
 8049010:	7e e9                	jle    8048ffb <phase_8+0x42>
 8049012:	eb cc                	jmp    8048fe0 <phase_8+0x27>
 8049014:	8b 52 08             	mov    0x8(%edx),%edx
 8049017:	83 c0 01             	add    $0x1,%eax
 804901a:	39 c8                	cmp    %ecx,%eax
 804901c:	75 f6                	jne    8049014 <phase_8+0x5b>
 804901e:	89 54 b4 24          	mov    %edx,0x24(%esp,%esi,4)
 8049022:	83 c3 01             	add    $0x1,%ebx
 8049025:	83 fb 06             	cmp    $0x6,%ebx
 8049028:	75 07                	jne    8049031 <phase_8+0x78>
 804902a:	eb 1c                	jmp    8049048 <phase_8+0x8f>
 804902c:	bb 00 00 00 00       	mov    $0x0,%ebx
 8049031:	89 de                	mov    %ebx,%esi
 8049033:	8b 4c 9c 0c          	mov    0xc(%esp,%ebx,4),%ecx
 8049037:	b8 01 00 00 00       	mov    $0x1,%eax
 804903c:	ba 54 d1 04 08       	mov    $0x804d154,%edx
 8049041:	83 f9 01             	cmp    $0x1,%ecx
 8049044:	7f ce                	jg     8049014 <phase_8+0x5b>
 8049046:	eb d6                	jmp    804901e <phase_8+0x65>
 8049048:	8b 5c 24 24          	mov    0x24(%esp),%ebx
 804904c:	8d 44 24 24          	lea    0x24(%esp),%eax
 8049050:	8d 74 24 38          	lea    0x38(%esp),%esi
 8049054:	89 d9                	mov    %ebx,%ecx
 8049056:	8b 50 04             	mov    0x4(%eax),%edx
 8049059:	89 51 08             	mov    %edx,0x8(%ecx)
 804905c:	83 c0 04             	add    $0x4,%eax
 804905f:	89 d1                	mov    %edx,%ecx
 8049061:	39 f0                	cmp    %esi,%eax
 8049063:	75 f1                	jne    8049056 <phase_8+0x9d>
 8049065:	c7 42 08 00 00 00 00 	movl   $0x0,0x8(%edx)
 804906c:	be 05 00 00 00       	mov    $0x5,%esi
 8049071:	8b 43 08             	mov    0x8(%ebx),%eax
 8049074:	8b 00                	mov    (%eax),%eax
 8049076:	39 03                	cmp    %eax,(%ebx)
 8049078:	7e 05                	jle    804907f <phase_8+0xc6>
 804907a:	e8 08 04 00 00       	call   8049487 <explode_bomb>
 804907f:	8b 5b 08             	mov    0x8(%ebx),%ebx
 8049082:	83 ee 01             	sub    $0x1,%esi
 8049085:	75 ea                	jne    8049071 <phase_8+0xb8>
 8049087:	8b 44 24 3c          	mov    0x3c(%esp),%eax
 804908b:	65 33 05 14 00 00 00 	xor    %gs:0x14,%eax
 8049092:	74 05                	je     8049099 <phase_8+0xe0>
 8049094:	e8 67 f7 ff ff       	call   8048800 <__stack_chk_fail@plt>
 8049099:	83 c4 44             	add    $0x44,%esp
 804909c:	5b                   	pop    %ebx
 804909d:	5e                   	pop    %esi
 804909e:	c3                   	ret    

0804909f <fun9>:
 804909f:	53                   	push   %ebx
 80490a0:	83 ec 08             	sub    $0x8,%esp
 80490a3:	8b 54 24 10          	mov    0x10(%esp),%edx
 80490a7:	8b 4c 24 14          	mov    0x14(%esp),%ecx
 80490ab:	85 d2                	test   %edx,%edx
 80490ad:	74 37                	je     80490e6 <fun9+0x47>
 80490af:	8b 1a                	mov    (%edx),%ebx
 80490b1:	39 cb                	cmp    %ecx,%ebx
 80490b3:	7e 13                	jle    80490c8 <fun9+0x29>
 80490b5:	83 ec 08             	sub    $0x8,%esp
 80490b8:	51                   	push   %ecx
 80490b9:	ff 72 04             	pushl  0x4(%edx)
 80490bc:	e8 de ff ff ff       	call   804909f <fun9>
 80490c1:	83 c4 10             	add    $0x10,%esp
 80490c4:	01 c0                	add    %eax,%eax
 80490c6:	eb 23                	jmp    80490eb <fun9+0x4c>
 80490c8:	b8 00 00 00 00       	mov    $0x0,%eax
 80490cd:	39 cb                	cmp    %ecx,%ebx
 80490cf:	74 1a                	je     80490eb <fun9+0x4c>
 80490d1:	83 ec 08             	sub    $0x8,%esp
 80490d4:	51                   	push   %ecx
 80490d5:	ff 72 08             	pushl  0x8(%edx)
 80490d8:	e8 c2 ff ff ff       	call   804909f <fun9>
 80490dd:	83 c4 10             	add    $0x10,%esp
 80490e0:	8d 44 00 01          	lea    0x1(%eax,%eax,1),%eax
 80490e4:	eb 05                	jmp    80490eb <fun9+0x4c>
 80490e6:	b8 ff ff ff ff       	mov    $0xffffffff,%eax
 80490eb:	83 c4 08             	add    $0x8,%esp
 80490ee:	5b                   	pop    %ebx
 80490ef:	c3                   	ret    

080490f0 <phase_9>:
 80490f0:	53                   	push   %ebx
 80490f1:	83 ec 0c             	sub    $0xc,%esp
 80490f4:	6a 0a                	push   $0xa
 80490f6:	6a 00                	push   $0x0
 80490f8:	ff 74 24 1c          	pushl  0x1c(%esp)
 80490fc:	e8 1f f8 ff ff       	call   8048920 <strtol@plt>
 8049101:	89 c3                	mov    %eax,%ebx
 8049103:	8d 40 ff             	lea    -0x1(%eax),%eax
 8049106:	83 c4 10             	add    $0x10,%esp
 8049109:	3d ec 03 00 00       	cmp    $0x3ec,%eax
 804910e:	76 05                	jbe    8049115 <phase_9+0x25>
 8049110:	e8 72 03 00 00       	call   8049487 <explode_bomb>
 8049115:	83 ec 08             	sub    $0x8,%esp
 8049118:	53                   	push   %ebx
 8049119:	68 a0 d0 04 08       	push   $0x804d0a0
 804911e:	e8 7c ff ff ff       	call   804909f <fun9>
 8049123:	83 c4 10             	add    $0x10,%esp
 8049126:	83 f8 04             	cmp    $0x4,%eax
 8049129:	74 05                	je     8049130 <phase_9+0x40>
 804912b:	e8 57 03 00 00       	call   8049487 <explode_bomb>
 8049130:	83 c4 08             	add    $0x8,%esp
 8049133:	5b                   	pop    %ebx
 8049134:	c3                   	ret    

08049135 <sig_handler>:
 8049135:	83 ec 18             	sub    $0x18,%esp
 8049138:	68 60 a4 04 08       	push   $0x804a460
 804913d:	e8 0e f7 ff ff       	call   8048850 <puts@plt>
 8049142:	c7 04 24 03 00 00 00 	movl   $0x3,(%esp)
 8049149:	e8 92 f6 ff ff       	call   80487e0 <sleep@plt>
 804914e:	83 c4 08             	add    $0x8,%esp
 8049151:	68 bd a5 04 08       	push   $0x804a5bd
 8049156:	6a 01                	push   $0x1
 8049158:	e8 83 f7 ff ff       	call   80488e0 <__printf_chk@plt>
 804915d:	83 c4 04             	add    $0x4,%esp
 8049160:	ff 35 e4 d7 04 08    	pushl  0x804d7e4
 8049166:	e8 45 f6 ff ff       	call   80487b0 <fflush@plt>
 804916b:	c7 04 24 01 00 00 00 	movl   $0x1,(%esp)
 8049172:	e8 69 f6 ff ff       	call   80487e0 <sleep@plt>
 8049177:	c7 04 24 c5 a5 04 08 	movl   $0x804a5c5,(%esp)
 804917e:	e8 cd f6 ff ff       	call   8048850 <puts@plt>
 8049183:	c7 04 24 10 00 00 00 	movl   $0x10,(%esp)
 804918a:	e8 e1 f6 ff ff       	call   8048870 <exit@plt>

0804918f <invalid_phase>:
 804918f:	83 ec 10             	sub    $0x10,%esp
 8049192:	ff 74 24 14          	pushl  0x14(%esp)
 8049196:	68 cd a5 04 08       	push   $0x804a5cd
 804919b:	6a 01                	push   $0x1
 804919d:	e8 3e f7 ff ff       	call   80488e0 <__printf_chk@plt>
 80491a2:	c7 04 24 08 00 00 00 	movl   $0x8,(%esp)
 80491a9:	e8 c2 f6 ff ff       	call   8048870 <exit@plt>

080491ae <string_length>:
 80491ae:	8b 54 24 04          	mov    0x4(%esp),%edx
 80491b2:	80 3a 00             	cmpb   $0x0,(%edx)
 80491b5:	74 10                	je     80491c7 <string_length+0x19>
 80491b7:	b8 00 00 00 00       	mov    $0x0,%eax
 80491bc:	83 c0 01             	add    $0x1,%eax
 80491bf:	80 3c 02 00          	cmpb   $0x0,(%edx,%eax,1)
 80491c3:	75 f7                	jne    80491bc <string_length+0xe>
 80491c5:	f3 c3                	repz ret 
 80491c7:	b8 00 00 00 00       	mov    $0x0,%eax
 80491cc:	c3                   	ret    

080491cd <strings_not_equal>:
 80491cd:	57                   	push   %edi
 80491ce:	56                   	push   %esi
 80491cf:	53                   	push   %ebx
 80491d0:	8b 5c 24 10          	mov    0x10(%esp),%ebx
 80491d4:	8b 74 24 14          	mov    0x14(%esp),%esi
 80491d8:	53                   	push   %ebx
 80491d9:	e8 d0 ff ff ff       	call   80491ae <string_length>
 80491de:	89 c7                	mov    %eax,%edi
 80491e0:	89 34 24             	mov    %esi,(%esp)
 80491e3:	e8 c6 ff ff ff       	call   80491ae <string_length>
 80491e8:	83 c4 04             	add    $0x4,%esp
 80491eb:	ba 01 00 00 00       	mov    $0x1,%edx
 80491f0:	39 c7                	cmp    %eax,%edi
 80491f2:	75 38                	jne    804922c <strings_not_equal+0x5f>
 80491f4:	0f b6 03             	movzbl (%ebx),%eax
 80491f7:	84 c0                	test   %al,%al
 80491f9:	74 1e                	je     8049219 <strings_not_equal+0x4c>
 80491fb:	3a 06                	cmp    (%esi),%al
 80491fd:	74 06                	je     8049205 <strings_not_equal+0x38>
 80491ff:	eb 1f                	jmp    8049220 <strings_not_equal+0x53>
 8049201:	3a 06                	cmp    (%esi),%al
 8049203:	75 22                	jne    8049227 <strings_not_equal+0x5a>
 8049205:	83 c3 01             	add    $0x1,%ebx
 8049208:	83 c6 01             	add    $0x1,%esi
 804920b:	0f b6 03             	movzbl (%ebx),%eax
 804920e:	84 c0                	test   %al,%al
 8049210:	75 ef                	jne    8049201 <strings_not_equal+0x34>
 8049212:	ba 00 00 00 00       	mov    $0x0,%edx
 8049217:	eb 13                	jmp    804922c <strings_not_equal+0x5f>
 8049219:	ba 00 00 00 00       	mov    $0x0,%edx
 804921e:	eb 0c                	jmp    804922c <strings_not_equal+0x5f>
 8049220:	ba 01 00 00 00       	mov    $0x1,%edx
 8049225:	eb 05                	jmp    804922c <strings_not_equal+0x5f>
 8049227:	ba 01 00 00 00       	mov    $0x1,%edx
 804922c:	89 d0                	mov    %edx,%eax
 804922e:	5b                   	pop    %ebx
 804922f:	5e                   	pop    %esi
 8049230:	5f                   	pop    %edi
 8049231:	c3                   	ret    

08049232 <initialize_bomb>:
 8049232:	56                   	push   %esi
 8049233:	53                   	push   %ebx
 8049234:	81 ec 5c 20 00 00    	sub    $0x205c,%esp
 804923a:	65 a1 14 00 00 00    	mov    %gs:0x14,%eax
 8049240:	89 84 24 54 20 00 00 	mov    %eax,0x2054(%esp)
 8049247:	31 c0                	xor    %eax,%eax
 8049249:	68 35 91 04 08       	push   $0x8049135
 804924e:	6a 02                	push   $0x2
 8049250:	e8 7b f5 ff ff       	call   80487d0 <signal@plt>
 8049255:	83 c4 08             	add    $0x8,%esp
 8049258:	6a 40                	push   $0x40
 804925a:	8d 44 24 18          	lea    0x18(%esp),%eax
 804925e:	50                   	push   %eax
 804925f:	e8 bc f5 ff ff       	call   8048820 <gethostname@plt>
 8049264:	83 c4 10             	add    $0x10,%esp
 8049267:	85 c0                	test   %eax,%eax
 8049269:	75 14                	jne    804927f <initialize_bomb+0x4d>
 804926b:	a1 c0 d5 04 08       	mov    0x804d5c0,%eax
 8049270:	bb c4 d5 04 08       	mov    $0x804d5c4,%ebx
 8049275:	8d 74 24 0c          	lea    0xc(%esp),%esi
 8049279:	85 c0                	test   %eax,%eax
 804927b:	75 1b                	jne    8049298 <initialize_bomb+0x66>
 804927d:	eb 56                	jmp    80492d5 <initialize_bomb+0xa3>
 804927f:	83 ec 0c             	sub    $0xc,%esp
 8049282:	68 98 a4 04 08       	push   $0x804a498
 8049287:	e8 c4 f5 ff ff       	call   8048850 <puts@plt>
 804928c:	c7 04 24 08 00 00 00 	movl   $0x8,(%esp)
 8049293:	e8 d8 f5 ff ff       	call   8048870 <exit@plt>
 8049298:	83 ec 08             	sub    $0x8,%esp
 804929b:	56                   	push   %esi
 804929c:	50                   	push   %eax
 804929d:	e8 fe f5 ff ff       	call   80488a0 <strcasecmp@plt>
 80492a2:	83 c4 10             	add    $0x10,%esp
 80492a5:	85 c0                	test   %eax,%eax
 80492a7:	74 45                	je     80492ee <initialize_bomb+0xbc>
 80492a9:	83 c3 04             	add    $0x4,%ebx
 80492ac:	8b 43 fc             	mov    -0x4(%ebx),%eax
 80492af:	85 c0                	test   %eax,%eax
 80492b1:	75 e5                	jne    8049298 <initialize_bomb+0x66>
 80492b3:	eb 20                	jmp    80492d5 <initialize_bomb+0xa3>
 80492b5:	83 ec 04             	sub    $0x4,%esp
 80492b8:	8d 44 24 50          	lea    0x50(%esp),%eax
 80492bc:	50                   	push   %eax
 80492bd:	68 de a5 04 08       	push   $0x804a5de
 80492c2:	6a 01                	push   $0x1
 80492c4:	e8 17 f6 ff ff       	call   80488e0 <__printf_chk@plt>
 80492c9:	c7 04 24 08 00 00 00 	movl   $0x8,(%esp)
 80492d0:	e8 9b f5 ff ff       	call   8048870 <exit@plt>
 80492d5:	83 ec 0c             	sub    $0xc,%esp
 80492d8:	68 d0 a4 04 08       	push   $0x804a4d0
 80492dd:	e8 6e f5 ff ff       	call   8048850 <puts@plt>
 80492e2:	c7 04 24 08 00 00 00 	movl   $0x8,(%esp)
 80492e9:	e8 82 f5 ff ff       	call   8048870 <exit@plt>
 80492ee:	83 ec 0c             	sub    $0xc,%esp
 80492f1:	8d 44 24 58          	lea    0x58(%esp),%eax
 80492f5:	50                   	push   %eax
 80492f6:	e8 29 0c 00 00       	call   8049f24 <init_driver>
 80492fb:	83 c4 10             	add    $0x10,%esp
 80492fe:	85 c0                	test   %eax,%eax
 8049300:	78 b3                	js     80492b5 <initialize_bomb+0x83>
 8049302:	8b 84 24 4c 20 00 00 	mov    0x204c(%esp),%eax
 8049309:	65 33 05 14 00 00 00 	xor    %gs:0x14,%eax
 8049310:	74 05                	je     8049317 <initialize_bomb+0xe5>
 8049312:	e8 e9 f4 ff ff       	call   8048800 <__stack_chk_fail@plt>
 8049317:	81 c4 54 20 00 00    	add    $0x2054,%esp
 804931d:	5b                   	pop    %ebx
 804931e:	5e                   	pop    %esi
 804931f:	c3                   	ret    

08049320 <initialize_bomb_solve>:
 8049320:	f3 c3                	repz ret 

08049322 <blank_line>:
 8049322:	56                   	push   %esi
 8049323:	53                   	push   %ebx
 8049324:	83 ec 04             	sub    $0x4,%esp
 8049327:	8b 74 24 10          	mov    0x10(%esp),%esi
 804932b:	eb 14                	jmp    8049341 <blank_line+0x1f>
 804932d:	e8 1e f6 ff ff       	call   8048950 <__ctype_b_loc@plt>
 8049332:	83 c6 01             	add    $0x1,%esi
 8049335:	0f be db             	movsbl %bl,%ebx
 8049338:	8b 00                	mov    (%eax),%eax
 804933a:	f6 44 58 01 20       	testb  $0x20,0x1(%eax,%ebx,2)
 804933f:	74 0e                	je     804934f <blank_line+0x2d>
 8049341:	0f b6 1e             	movzbl (%esi),%ebx
 8049344:	84 db                	test   %bl,%bl
 8049346:	75 e5                	jne    804932d <blank_line+0xb>
 8049348:	b8 01 00 00 00       	mov    $0x1,%eax
 804934d:	eb 05                	jmp    8049354 <blank_line+0x32>
 804934f:	b8 00 00 00 00       	mov    $0x0,%eax
 8049354:	83 c4 04             	add    $0x4,%esp
 8049357:	5b                   	pop    %ebx
 8049358:	5e                   	pop    %esi
 8049359:	c3                   	ret    

0804935a <skip>:
 804935a:	53                   	push   %ebx
 804935b:	83 ec 08             	sub    $0x8,%esp
 804935e:	83 ec 04             	sub    $0x4,%esp
 8049361:	ff 35 f0 d7 04 08    	pushl  0x804d7f0
 8049367:	6a 50                	push   $0x50
 8049369:	a1 ec d7 04 08       	mov    0x804d7ec,%eax
 804936e:	8d 04 80             	lea    (%eax,%eax,4),%eax
 8049371:	c1 e0 04             	shl    $0x4,%eax
 8049374:	05 00 d8 04 08       	add    $0x804d800,%eax
 8049379:	50                   	push   %eax
 804937a:	e8 41 f4 ff ff       	call   80487c0 <fgets@plt>
 804937f:	89 c3                	mov    %eax,%ebx
 8049381:	83 c4 10             	add    $0x10,%esp
 8049384:	85 c0                	test   %eax,%eax
 8049386:	74 10                	je     8049398 <skip+0x3e>
 8049388:	83 ec 0c             	sub    $0xc,%esp
 804938b:	50                   	push   %eax
 804938c:	e8 91 ff ff ff       	call   8049322 <blank_line>
 8049391:	83 c4 10             	add    $0x10,%esp
 8049394:	85 c0                	test   %eax,%eax
 8049396:	75 c6                	jne    804935e <skip+0x4>
 8049398:	89 d8                	mov    %ebx,%eax
 804939a:	83 c4 08             	add    $0x8,%esp
 804939d:	5b                   	pop    %ebx
 804939e:	c3                   	ret    

0804939f <send_msg>:
 804939f:	57                   	push   %edi
 80493a0:	53                   	push   %ebx
 80493a1:	81 ec 14 40 00 00    	sub    $0x4014,%esp
 80493a7:	65 a1 14 00 00 00    	mov    %gs:0x14,%eax
 80493ad:	89 84 24 0c 40 00 00 	mov    %eax,0x400c(%esp)
 80493b4:	31 c0                	xor    %eax,%eax
 80493b6:	8b 1d ec d7 04 08    	mov    0x804d7ec,%ebx
 80493bc:	8d 54 9b fb          	lea    -0x5(%ebx,%ebx,4),%edx
 80493c0:	c1 e2 04             	shl    $0x4,%edx
 80493c3:	81 c2 00 d8 04 08    	add    $0x804d800,%edx
 80493c9:	b9 ff ff ff ff       	mov    $0xffffffff,%ecx
 80493ce:	89 d7                	mov    %edx,%edi
 80493d0:	f2 ae                	repnz scas %es:(%edi),%al
 80493d2:	f7 d1                	not    %ecx
 80493d4:	83 c1 63             	add    $0x63,%ecx
 80493d7:	81 f9 00 20 00 00    	cmp    $0x2000,%ecx
 80493dd:	76 1b                	jbe    80493fa <send_msg+0x5b>
 80493df:	83 ec 08             	sub    $0x8,%esp
 80493e2:	68 08 a5 04 08       	push   $0x804a508
 80493e7:	6a 01                	push   $0x1
 80493e9:	e8 f2 f4 ff ff       	call   80488e0 <__printf_chk@plt>
 80493ee:	c7 04 24 08 00 00 00 	movl   $0x8,(%esp)
 80493f5:	e8 76 f4 ff ff       	call   8048870 <exit@plt>
 80493fa:	83 bc 24 20 40 00 00 	cmpl   $0x0,0x4020(%esp)
 8049401:	00 
 8049402:	b9 00 a6 04 08       	mov    $0x804a600,%ecx
 8049407:	b8 f8 a5 04 08       	mov    $0x804a5f8,%eax
 804940c:	0f 44 c1             	cmove  %ecx,%eax
 804940f:	52                   	push   %edx
 8049410:	53                   	push   %ebx
 8049411:	50                   	push   %eax
 8049412:	ff 35 a0 d5 04 08    	pushl  0x804d5a0
 8049418:	68 09 a6 04 08       	push   $0x804a609
 804941d:	68 00 20 00 00       	push   $0x2000
 8049422:	6a 01                	push   $0x1
 8049424:	8d 5c 24 28          	lea    0x28(%esp),%ebx
 8049428:	53                   	push   %ebx
 8049429:	e8 32 f5 ff ff       	call   8048960 <__sprintf_chk@plt>
 804942e:	83 c4 20             	add    $0x20,%esp
 8049431:	8d 84 24 0c 20 00 00 	lea    0x200c(%esp),%eax
 8049438:	50                   	push   %eax
 8049439:	6a 00                	push   $0x0
 804943b:	53                   	push   %ebx
 804943c:	68 a0 d1 04 08       	push   $0x804d1a0
 8049441:	e8 b0 0c 00 00       	call   804a0f6 <driver_post>
 8049446:	83 c4 10             	add    $0x10,%esp
 8049449:	85 c0                	test   %eax,%eax
 804944b:	79 1c                	jns    8049469 <send_msg+0xca>
 804944d:	83 ec 0c             	sub    $0xc,%esp
 8049450:	8d 84 24 18 20 00 00 	lea    0x2018(%esp),%eax
 8049457:	50                   	push   %eax
 8049458:	e8 f3 f3 ff ff       	call   8048850 <puts@plt>
 804945d:	c7 04 24 00 00 00 00 	movl   $0x0,(%esp)
 8049464:	e8 07 f4 ff ff       	call   8048870 <exit@plt>
 8049469:	8b 84 24 0c 40 00 00 	mov    0x400c(%esp),%eax
 8049470:	65 33 05 14 00 00 00 	xor    %gs:0x14,%eax
 8049477:	74 05                	je     804947e <send_msg+0xdf>
 8049479:	e8 82 f3 ff ff       	call   8048800 <__stack_chk_fail@plt>
 804947e:	81 c4 14 40 00 00    	add    $0x4014,%esp
 8049484:	5b                   	pop    %ebx
 8049485:	5f                   	pop    %edi
 8049486:	c3                   	ret    

08049487 <explode_bomb>:
 8049487:	83 ec 18             	sub    $0x18,%esp
 804948a:	68 15 a6 04 08       	push   $0x804a615
 804948f:	e8 bc f3 ff ff       	call   8048850 <puts@plt>
 8049494:	c7 04 24 1e a6 04 08 	movl   $0x804a61e,(%esp)
 804949b:	e8 b0 f3 ff ff       	call   8048850 <puts@plt>
 80494a0:	c7 04 24 00 00 00 00 	movl   $0x0,(%esp)
 80494a7:	e8 f3 fe ff ff       	call   804939f <send_msg>
 80494ac:	c7 04 24 2c a5 04 08 	movl   $0x804a52c,(%esp)
 80494b3:	e8 98 f3 ff ff       	call   8048850 <puts@plt>
 80494b8:	c7 04 24 08 00 00 00 	movl   $0x8,(%esp)
 80494bf:	e8 ac f3 ff ff       	call   8048870 <exit@plt>

080494c4 <read_six_numbers>:
 80494c4:	83 ec 0c             	sub    $0xc,%esp
 80494c7:	8b 44 24 14          	mov    0x14(%esp),%eax
 80494cb:	8d 50 14             	lea    0x14(%eax),%edx
 80494ce:	52                   	push   %edx
 80494cf:	8d 50 10             	lea    0x10(%eax),%edx
 80494d2:	52                   	push   %edx
 80494d3:	8d 50 0c             	lea    0xc(%eax),%edx
 80494d6:	52                   	push   %edx
 80494d7:	8d 50 08             	lea    0x8(%eax),%edx
 80494da:	52                   	push   %edx
 80494db:	8d 50 04             	lea    0x4(%eax),%edx
 80494de:	52                   	push   %edx
 80494df:	50                   	push   %eax
 80494e0:	68 35 a6 04 08       	push   $0x804a635
 80494e5:	ff 74 24 2c          	pushl  0x2c(%esp)
 80494e9:	e8 c2 f3 ff ff       	call   80488b0 <__isoc99_sscanf@plt>
 80494ee:	83 c4 20             	add    $0x20,%esp
 80494f1:	83 f8 05             	cmp    $0x5,%eax
 80494f4:	7f 05                	jg     80494fb <read_six_numbers+0x37>
 80494f6:	e8 8c ff ff ff       	call   8049487 <explode_bomb>
 80494fb:	83 c4 0c             	add    $0xc,%esp
 80494fe:	c3                   	ret    

080494ff <read_line>:
 80494ff:	57                   	push   %edi
 8049500:	56                   	push   %esi
 8049501:	53                   	push   %ebx
 8049502:	e8 53 fe ff ff       	call   804935a <skip>
 8049507:	85 c0                	test   %eax,%eax
 8049509:	75 70                	jne    804957b <read_line+0x7c>
 804950b:	a1 e0 d7 04 08       	mov    0x804d7e0,%eax
 8049510:	39 05 f0 d7 04 08    	cmp    %eax,0x804d7f0
 8049516:	75 19                	jne    8049531 <read_line+0x32>
 8049518:	83 ec 0c             	sub    $0xc,%esp
 804951b:	68 47 a6 04 08       	push   $0x804a647
 8049520:	e8 2b f3 ff ff       	call   8048850 <puts@plt>
 8049525:	c7 04 24 08 00 00 00 	movl   $0x8,(%esp)
 804952c:	e8 3f f3 ff ff       	call   8048870 <exit@plt>
 8049531:	83 ec 0c             	sub    $0xc,%esp
 8049534:	68 65 a6 04 08       	push   $0x804a665
 8049539:	e8 f2 f2 ff ff       	call   8048830 <getenv@plt>
 804953e:	83 c4 10             	add    $0x10,%esp
 8049541:	85 c0                	test   %eax,%eax
 8049543:	74 0a                	je     804954f <read_line+0x50>
 8049545:	83 ec 0c             	sub    $0xc,%esp
 8049548:	6a 00                	push   $0x0
 804954a:	e8 21 f3 ff ff       	call   8048870 <exit@plt>
 804954f:	a1 e0 d7 04 08       	mov    0x804d7e0,%eax
 8049554:	a3 f0 d7 04 08       	mov    %eax,0x804d7f0
 8049559:	e8 fc fd ff ff       	call   804935a <skip>
 804955e:	85 c0                	test   %eax,%eax
 8049560:	75 19                	jne    804957b <read_line+0x7c>
 8049562:	83 ec 0c             	sub    $0xc,%esp
 8049565:	68 47 a6 04 08       	push   $0x804a647
 804956a:	e8 e1 f2 ff ff       	call   8048850 <puts@plt>
 804956f:	c7 04 24 00 00 00 00 	movl   $0x0,(%esp)
 8049576:	e8 f5 f2 ff ff       	call   8048870 <exit@plt>
 804957b:	8b 15 ec d7 04 08    	mov    0x804d7ec,%edx
 8049581:	8d 1c 92             	lea    (%edx,%edx,4),%ebx
 8049584:	c1 e3 04             	shl    $0x4,%ebx
 8049587:	81 c3 00 d8 04 08    	add    $0x804d800,%ebx
 804958d:	b8 00 00 00 00       	mov    $0x0,%eax
 8049592:	b9 ff ff ff ff       	mov    $0xffffffff,%ecx
 8049597:	89 df                	mov    %ebx,%edi
 8049599:	f2 ae                	repnz scas %es:(%edi),%al
 804959b:	f7 d1                	not    %ecx
 804959d:	83 e9 01             	sub    $0x1,%ecx
 80495a0:	83 f9 4e             	cmp    $0x4e,%ecx
 80495a3:	7e 36                	jle    80495db <read_line+0xdc>
 80495a5:	83 ec 0c             	sub    $0xc,%esp
 80495a8:	68 70 a6 04 08       	push   $0x804a670
 80495ad:	e8 9e f2 ff ff       	call   8048850 <puts@plt>
 80495b2:	a1 ec d7 04 08       	mov    0x804d7ec,%eax
 80495b7:	8d 50 01             	lea    0x1(%eax),%edx
 80495ba:	89 15 ec d7 04 08    	mov    %edx,0x804d7ec
 80495c0:	6b c0 50             	imul   $0x50,%eax,%eax
 80495c3:	05 00 d8 04 08       	add    $0x804d800,%eax
 80495c8:	be 8b a6 04 08       	mov    $0x804a68b,%esi
 80495cd:	b9 04 00 00 00       	mov    $0x4,%ecx
 80495d2:	89 c7                	mov    %eax,%edi
 80495d4:	f3 a5                	rep movsl %ds:(%esi),%es:(%edi)
 80495d6:	e8 ac fe ff ff       	call   8049487 <explode_bomb>
 80495db:	8d 04 92             	lea    (%edx,%edx,4),%eax
 80495de:	c1 e0 04             	shl    $0x4,%eax
 80495e1:	c6 84 01 ff d7 04 08 	movb   $0x0,0x804d7ff(%ecx,%eax,1)
 80495e8:	00 
 80495e9:	83 c2 01             	add    $0x1,%edx
 80495ec:	89 15 ec d7 04 08    	mov    %edx,0x804d7ec
 80495f2:	89 d8                	mov    %ebx,%eax
 80495f4:	5b                   	pop    %ebx
 80495f5:	5e                   	pop    %esi
 80495f6:	5f                   	pop    %edi
 80495f7:	c3                   	ret    

080495f8 <phase_defused>:
 80495f8:	83 ec 18             	sub    $0x18,%esp
 80495fb:	6a 01                	push   $0x1
 80495fd:	e8 9d fd ff ff       	call   804939f <send_msg>
 8049602:	83 c4 10             	add    $0x10,%esp
 8049605:	83 3d ec d7 04 08 09 	cmpl   $0x9,0x804d7ec
 804960c:	75 1c                	jne    804962a <phase_defused+0x32>
 804960e:	83 ec 0c             	sub    $0xc,%esp
 8049611:	68 50 a5 04 08       	push   $0x804a550
 8049616:	e8 35 f2 ff ff       	call   8048850 <puts@plt>
 804961b:	c7 04 24 7c a5 04 08 	movl   $0x804a57c,(%esp)
 8049622:	e8 29 f2 ff ff       	call   8048850 <puts@plt>
 8049627:	83 c4 10             	add    $0x10,%esp
 804962a:	83 c4 0c             	add    $0xc,%esp
 804962d:	c3                   	ret    

0804962e <sigalrm_handler>:
 804962e:	83 ec 0c             	sub    $0xc,%esp
 8049631:	6a 00                	push   $0x0
 8049633:	68 48 aa 04 08       	push   $0x804aa48
 8049638:	6a 01                	push   $0x1
 804963a:	ff 35 c0 d7 04 08    	pushl  0x804d7c0
 8049640:	e8 bb f2 ff ff       	call   8048900 <__fprintf_chk@plt>
 8049645:	c7 04 24 01 00 00 00 	movl   $0x1,(%esp)
 804964c:	e8 1f f2 ff ff       	call   8048870 <exit@plt>

08049651 <rio_readlineb>:
 8049651:	55                   	push   %ebp
 8049652:	57                   	push   %edi
 8049653:	56                   	push   %esi
 8049654:	53                   	push   %ebx
 8049655:	83 ec 2c             	sub    $0x2c,%esp
 8049658:	89 d7                	mov    %edx,%edi
 804965a:	89 4c 24 0c          	mov    %ecx,0xc(%esp)
 804965e:	65 8b 15 14 00 00 00 	mov    %gs:0x14,%edx
 8049665:	89 54 24 1c          	mov    %edx,0x1c(%esp)
 8049669:	31 d2                	xor    %edx,%edx
 804966b:	83 f9 01             	cmp    $0x1,%ecx
 804966e:	76 79                	jbe    80496e9 <rio_readlineb+0x98>
 8049670:	89 c3                	mov    %eax,%ebx
 8049672:	89 4c 24 08          	mov    %ecx,0x8(%esp)
 8049676:	bd 01 00 00 00       	mov    $0x1,%ebp
 804967b:	8d 73 0c             	lea    0xc(%ebx),%esi
 804967e:	eb 2d                	jmp    80496ad <rio_readlineb+0x5c>
 8049680:	83 ec 04             	sub    $0x4,%esp
 8049683:	68 00 20 00 00       	push   $0x2000
 8049688:	56                   	push   %esi
 8049689:	ff 33                	pushl  (%ebx)
 804968b:	e8 10 f1 ff ff       	call   80487a0 <read@plt>
 8049690:	89 43 04             	mov    %eax,0x4(%ebx)
 8049693:	83 c4 10             	add    $0x10,%esp
 8049696:	85 c0                	test   %eax,%eax
 8049698:	79 0c                	jns    80496a6 <rio_readlineb+0x55>
 804969a:	e8 31 f2 ff ff       	call   80488d0 <__errno_location@plt>
 804969f:	83 38 04             	cmpl   $0x4,(%eax)
 80496a2:	74 09                	je     80496ad <rio_readlineb+0x5c>
 80496a4:	eb 62                	jmp    8049708 <rio_readlineb+0xb7>
 80496a6:	85 c0                	test   %eax,%eax
 80496a8:	74 63                	je     804970d <rio_readlineb+0xbc>
 80496aa:	89 73 08             	mov    %esi,0x8(%ebx)
 80496ad:	8b 43 04             	mov    0x4(%ebx),%eax
 80496b0:	85 c0                	test   %eax,%eax
 80496b2:	7e cc                	jle    8049680 <rio_readlineb+0x2f>
 80496b4:	8b 4b 08             	mov    0x8(%ebx),%ecx
 80496b7:	0f b6 11             	movzbl (%ecx),%edx
 80496ba:	88 54 24 1b          	mov    %dl,0x1b(%esp)
 80496be:	83 c1 01             	add    $0x1,%ecx
 80496c1:	89 4b 08             	mov    %ecx,0x8(%ebx)
 80496c4:	83 e8 01             	sub    $0x1,%eax
 80496c7:	89 43 04             	mov    %eax,0x4(%ebx)
 80496ca:	83 c7 01             	add    $0x1,%edi
 80496cd:	88 57 ff             	mov    %dl,-0x1(%edi)
 80496d0:	80 fa 0a             	cmp    $0xa,%dl
 80496d3:	75 09                	jne    80496de <rio_readlineb+0x8d>
 80496d5:	eb 1d                	jmp    80496f4 <rio_readlineb+0xa3>
 80496d7:	83 fd 01             	cmp    $0x1,%ebp
 80496da:	75 18                	jne    80496f4 <rio_readlineb+0xa3>
 80496dc:	eb 1b                	jmp    80496f9 <rio_readlineb+0xa8>
 80496de:	83 c5 01             	add    $0x1,%ebp
 80496e1:	3b 6c 24 08          	cmp    0x8(%esp),%ebp
 80496e5:	74 09                	je     80496f0 <rio_readlineb+0x9f>
 80496e7:	eb c4                	jmp    80496ad <rio_readlineb+0x5c>
 80496e9:	bd 01 00 00 00       	mov    $0x1,%ebp
 80496ee:	eb 04                	jmp    80496f4 <rio_readlineb+0xa3>
 80496f0:	8b 6c 24 0c          	mov    0xc(%esp),%ebp
 80496f4:	c6 07 00             	movb   $0x0,(%edi)
 80496f7:	89 e8                	mov    %ebp,%eax
 80496f9:	8b 54 24 1c          	mov    0x1c(%esp),%edx
 80496fd:	65 33 15 14 00 00 00 	xor    %gs:0x14,%edx
 8049704:	74 17                	je     804971d <rio_readlineb+0xcc>
 8049706:	eb 10                	jmp    8049718 <rio_readlineb+0xc7>
 8049708:	b8 ff ff ff ff       	mov    $0xffffffff,%eax
 804970d:	85 c0                	test   %eax,%eax
 804970f:	74 c6                	je     80496d7 <rio_readlineb+0x86>
 8049711:	b8 ff ff ff ff       	mov    $0xffffffff,%eax
 8049716:	eb e1                	jmp    80496f9 <rio_readlineb+0xa8>
 8049718:	e8 e3 f0 ff ff       	call   8048800 <__stack_chk_fail@plt>
 804971d:	83 c4 2c             	add    $0x2c,%esp
 8049720:	5b                   	pop    %ebx
 8049721:	5e                   	pop    %esi
 8049722:	5f                   	pop    %edi
 8049723:	5d                   	pop    %ebp
 8049724:	c3                   	ret    

08049725 <submitr>:
 8049725:	55                   	push   %ebp
 8049726:	57                   	push   %edi
 8049727:	56                   	push   %esi
 8049728:	53                   	push   %ebx
 8049729:	81 ec 60 a0 00 00    	sub    $0xa060,%esp
 804972f:	8b b4 24 74 a0 00 00 	mov    0xa074(%esp),%esi
 8049736:	8b 84 24 7c a0 00 00 	mov    0xa07c(%esp),%eax
 804973d:	89 44 24 10          	mov    %eax,0x10(%esp)
 8049741:	8b 84 24 80 a0 00 00 	mov    0xa080(%esp),%eax
 8049748:	89 44 24 14          	mov    %eax,0x14(%esp)
 804974c:	8b 84 24 84 a0 00 00 	mov    0xa084(%esp),%eax
 8049753:	89 44 24 18          	mov    %eax,0x18(%esp)
 8049757:	8b 9c 24 88 a0 00 00 	mov    0xa088(%esp),%ebx
 804975e:	8b 84 24 8c a0 00 00 	mov    0xa08c(%esp),%eax
 8049765:	89 44 24 1c          	mov    %eax,0x1c(%esp)
 8049769:	65 a1 14 00 00 00    	mov    %gs:0x14,%eax
 804976f:	89 84 24 50 a0 00 00 	mov    %eax,0xa050(%esp)
 8049776:	31 c0                	xor    %eax,%eax
 8049778:	c7 44 24 30 00 00 00 	movl   $0x0,0x30(%esp)
 804977f:	00 
 8049780:	6a 00                	push   $0x0
 8049782:	6a 01                	push   $0x1
 8049784:	6a 02                	push   $0x2
 8049786:	e8 65 f1 ff ff       	call   80488f0 <socket@plt>
 804978b:	89 44 24 18          	mov    %eax,0x18(%esp)
 804978f:	83 c4 10             	add    $0x10,%esp
 8049792:	85 c0                	test   %eax,%eax
 8049794:	79 52                	jns    80497e8 <submitr+0xc3>
 8049796:	8b 44 24 18          	mov    0x18(%esp),%eax
 804979a:	c7 00 45 72 72 6f    	movl   $0x6f727245,(%eax)
 80497a0:	c7 40 04 72 3a 20 43 	movl   $0x43203a72,0x4(%eax)
 80497a7:	c7 40 08 6c 69 65 6e 	movl   $0x6e65696c,0x8(%eax)
 80497ae:	c7 40 0c 74 20 75 6e 	movl   $0x6e752074,0xc(%eax)
 80497b5:	c7 40 10 61 62 6c 65 	movl   $0x656c6261,0x10(%eax)
 80497bc:	c7 40 14 20 74 6f 20 	movl   $0x206f7420,0x14(%eax)
 80497c3:	c7 40 18 63 72 65 61 	movl   $0x61657263,0x18(%eax)
 80497ca:	c7 40 1c 74 65 20 73 	movl   $0x73206574,0x1c(%eax)
 80497d1:	c7 40 20 6f 63 6b 65 	movl   $0x656b636f,0x20(%eax)
 80497d8:	66 c7 40 24 74 00    	movw   $0x74,0x24(%eax)
 80497de:	b8 ff ff ff ff       	mov    $0xffffffff,%eax
 80497e3:	e9 3f 06 00 00       	jmp    8049e27 <submitr+0x702>
 80497e8:	83 ec 0c             	sub    $0xc,%esp
 80497eb:	56                   	push   %esi
 80497ec:	e8 1f f1 ff ff       	call   8048910 <gethostbyname@plt>
 80497f1:	83 c4 10             	add    $0x10,%esp
 80497f4:	85 c0                	test   %eax,%eax
 80497f6:	75 73                	jne    804986b <submitr+0x146>
 80497f8:	8b 44 24 18          	mov    0x18(%esp),%eax
 80497fc:	c7 00 45 72 72 6f    	movl   $0x6f727245,(%eax)
 8049802:	c7 40 04 72 3a 20 44 	movl   $0x44203a72,0x4(%eax)
 8049809:	c7 40 08 4e 53 20 69 	movl   $0x6920534e,0x8(%eax)
 8049810:	c7 40 0c 73 20 75 6e 	movl   $0x6e752073,0xc(%eax)
 8049817:	c7 40 10 61 62 6c 65 	movl   $0x656c6261,0x10(%eax)
 804981e:	c7 40 14 20 74 6f 20 	movl   $0x206f7420,0x14(%eax)
 8049825:	c7 40 18 72 65 73 6f 	movl   $0x6f736572,0x18(%eax)
 804982c:	c7 40 1c 6c 76 65 20 	movl   $0x2065766c,0x1c(%eax)
 8049833:	c7 40 20 73 65 72 76 	movl   $0x76726573,0x20(%eax)
 804983a:	c7 40 24 65 72 20 61 	movl   $0x61207265,0x24(%eax)
 8049841:	c7 40 28 64 64 72 65 	movl   $0x65726464,0x28(%eax)
 8049848:	66 c7 40 2c 73 73    	movw   $0x7373,0x2c(%eax)
 804984e:	c6 40 2e 00          	movb   $0x0,0x2e(%eax)
 8049852:	83 ec 0c             	sub    $0xc,%esp
 8049855:	ff 74 24 14          	pushl  0x14(%esp)
 8049859:	e8 e2 f0 ff ff       	call   8048940 <close@plt>
 804985e:	83 c4 10             	add    $0x10,%esp
 8049861:	b8 ff ff ff ff       	mov    $0xffffffff,%eax
 8049866:	e9 bc 05 00 00       	jmp    8049e27 <submitr+0x702>
 804986b:	8d 74 24 30          	lea    0x30(%esp),%esi
 804986f:	c7 44 24 30 00 00 00 	movl   $0x0,0x30(%esp)
 8049876:	00 
 8049877:	c7 44 24 34 00 00 00 	movl   $0x0,0x34(%esp)
 804987e:	00 
 804987f:	c7 44 24 38 00 00 00 	movl   $0x0,0x38(%esp)
 8049886:	00 
 8049887:	c7 44 24 3c 00 00 00 	movl   $0x0,0x3c(%esp)
 804988e:	00 
 804988f:	66 c7 44 24 30 02 00 	movw   $0x2,0x30(%esp)
 8049896:	6a 0c                	push   $0xc
 8049898:	ff 70 0c             	pushl  0xc(%eax)
 804989b:	8b 40 10             	mov    0x10(%eax),%eax
 804989e:	ff 30                	pushl  (%eax)
 80498a0:	8d 44 24 40          	lea    0x40(%esp),%eax
 80498a4:	50                   	push   %eax
 80498a5:	e8 b6 ef ff ff       	call   8048860 <__memmove_chk@plt>
 80498aa:	0f b7 84 24 84 a0 00 	movzwl 0xa084(%esp),%eax
 80498b1:	00 
 80498b2:	66 c1 c8 08          	ror    $0x8,%ax
 80498b6:	66 89 44 24 42       	mov    %ax,0x42(%esp)
 80498bb:	83 c4 0c             	add    $0xc,%esp
 80498be:	6a 10                	push   $0x10
 80498c0:	56                   	push   %esi
 80498c1:	ff 74 24 14          	pushl  0x14(%esp)
 80498c5:	e8 66 f0 ff ff       	call   8048930 <connect@plt>
 80498ca:	83 c4 10             	add    $0x10,%esp
 80498cd:	85 c0                	test   %eax,%eax
 80498cf:	79 65                	jns    8049936 <submitr+0x211>
 80498d1:	8b 44 24 18          	mov    0x18(%esp),%eax
 80498d5:	c7 00 45 72 72 6f    	movl   $0x6f727245,(%eax)
 80498db:	c7 40 04 72 3a 20 55 	movl   $0x55203a72,0x4(%eax)
 80498e2:	c7 40 08 6e 61 62 6c 	movl   $0x6c62616e,0x8(%eax)
 80498e9:	c7 40 0c 65 20 74 6f 	movl   $0x6f742065,0xc(%eax)
 80498f0:	c7 40 10 20 63 6f 6e 	movl   $0x6e6f6320,0x10(%eax)
 80498f7:	c7 40 14 6e 65 63 74 	movl   $0x7463656e,0x14(%eax)
 80498fe:	c7 40 18 20 74 6f 20 	movl   $0x206f7420,0x18(%eax)
 8049905:	c7 40 1c 74 68 65 20 	movl   $0x20656874,0x1c(%eax)
 804990c:	c7 40 20 73 65 72 76 	movl   $0x76726573,0x20(%eax)
 8049913:	66 c7 40 24 65 72    	movw   $0x7265,0x24(%eax)
 8049919:	c6 40 26 00          	movb   $0x0,0x26(%eax)
 804991d:	83 ec 0c             	sub    $0xc,%esp
 8049920:	ff 74 24 14          	pushl  0x14(%esp)
 8049924:	e8 17 f0 ff ff       	call   8048940 <close@plt>
 8049929:	83 c4 10             	add    $0x10,%esp
 804992c:	b8 ff ff ff ff       	mov    $0xffffffff,%eax
 8049931:	e9 f1 04 00 00       	jmp    8049e27 <submitr+0x702>
 8049936:	be ff ff ff ff       	mov    $0xffffffff,%esi
 804993b:	b8 00 00 00 00       	mov    $0x0,%eax
 8049940:	89 f1                	mov    %esi,%ecx
 8049942:	89 df                	mov    %ebx,%edi
 8049944:	f2 ae                	repnz scas %es:(%edi),%al
 8049946:	f7 d1                	not    %ecx
 8049948:	89 cd                	mov    %ecx,%ebp
 804994a:	89 f1                	mov    %esi,%ecx
 804994c:	8b 7c 24 0c          	mov    0xc(%esp),%edi
 8049950:	f2 ae                	repnz scas %es:(%edi),%al
 8049952:	89 4c 24 1c          	mov    %ecx,0x1c(%esp)
 8049956:	89 f1                	mov    %esi,%ecx
 8049958:	8b 7c 24 10          	mov    0x10(%esp),%edi
 804995c:	f2 ae                	repnz scas %es:(%edi),%al
 804995e:	89 ca                	mov    %ecx,%edx
 8049960:	f7 d2                	not    %edx
 8049962:	89 f1                	mov    %esi,%ecx
 8049964:	8b 7c 24 14          	mov    0x14(%esp),%edi
 8049968:	f2 ae                	repnz scas %es:(%edi),%al
 804996a:	2b 54 24 1c          	sub    0x1c(%esp),%edx
 804996e:	29 ca                	sub    %ecx,%edx
 8049970:	8d 44 6d fd          	lea    -0x3(%ebp,%ebp,2),%eax
 8049974:	8d 44 02 7b          	lea    0x7b(%edx,%eax,1),%eax
 8049978:	3d 00 20 00 00       	cmp    $0x2000,%eax
 804997d:	76 7e                	jbe    80499fd <submitr+0x2d8>
 804997f:	8b 44 24 18          	mov    0x18(%esp),%eax
 8049983:	c7 00 45 72 72 6f    	movl   $0x6f727245,(%eax)
 8049989:	c7 40 04 72 3a 20 52 	movl   $0x52203a72,0x4(%eax)
 8049990:	c7 40 08 65 73 75 6c 	movl   $0x6c757365,0x8(%eax)
 8049997:	c7 40 0c 74 20 73 74 	movl   $0x74732074,0xc(%eax)
 804999e:	c7 40 10 72 69 6e 67 	movl   $0x676e6972,0x10(%eax)
 80499a5:	c7 40 14 20 74 6f 6f 	movl   $0x6f6f7420,0x14(%eax)
 80499ac:	c7 40 18 20 6c 61 72 	movl   $0x72616c20,0x18(%eax)
 80499b3:	c7 40 1c 67 65 2e 20 	movl   $0x202e6567,0x1c(%eax)
 80499ba:	c7 40 20 49 6e 63 72 	movl   $0x72636e49,0x20(%eax)
 80499c1:	c7 40 24 65 61 73 65 	movl   $0x65736165,0x24(%eax)
 80499c8:	c7 40 28 20 53 55 42 	movl   $0x42555320,0x28(%eax)
 80499cf:	c7 40 2c 4d 49 54 52 	movl   $0x5254494d,0x2c(%eax)
 80499d6:	c7 40 30 5f 4d 41 58 	movl   $0x58414d5f,0x30(%eax)
 80499dd:	c7 40 34 42 55 46 00 	movl   $0x465542,0x34(%eax)
 80499e4:	83 ec 0c             	sub    $0xc,%esp
 80499e7:	ff 74 24 14          	pushl  0x14(%esp)
 80499eb:	e8 50 ef ff ff       	call   8048940 <close@plt>
 80499f0:	83 c4 10             	add    $0x10,%esp
 80499f3:	b8 ff ff ff ff       	mov    $0xffffffff,%eax
 80499f8:	e9 2a 04 00 00       	jmp    8049e27 <submitr+0x702>
 80499fd:	8d 94 24 4c 40 00 00 	lea    0x404c(%esp),%edx
 8049a04:	b9 00 08 00 00       	mov    $0x800,%ecx
 8049a09:	b8 00 00 00 00       	mov    $0x0,%eax
 8049a0e:	89 d7                	mov    %edx,%edi
 8049a10:	f3 ab                	rep stos %eax,%es:(%edi)
 8049a12:	b9 ff ff ff ff       	mov    $0xffffffff,%ecx
 8049a17:	89 df                	mov    %ebx,%edi
 8049a19:	f2 ae                	repnz scas %es:(%edi),%al
 8049a1b:	f7 d1                	not    %ecx
 8049a1d:	89 ce                	mov    %ecx,%esi
 8049a1f:	83 ee 01             	sub    $0x1,%esi
 8049a22:	0f 84 5c 04 00 00    	je     8049e84 <submitr+0x75f>
 8049a28:	89 d5                	mov    %edx,%ebp
 8049a2a:	bf d9 ff 00 00       	mov    $0xffd9,%edi
 8049a2f:	0f b6 13             	movzbl (%ebx),%edx
 8049a32:	8d 4a d6             	lea    -0x2a(%edx),%ecx
 8049a35:	b8 01 00 00 00       	mov    $0x1,%eax
 8049a3a:	80 f9 0f             	cmp    $0xf,%cl
 8049a3d:	77 0a                	ja     8049a49 <submitr+0x324>
 8049a3f:	89 f8                	mov    %edi,%eax
 8049a41:	d3 e8                	shr    %cl,%eax
 8049a43:	83 f0 01             	xor    $0x1,%eax
 8049a46:	83 e0 01             	and    $0x1,%eax
 8049a49:	80 fa 5f             	cmp    $0x5f,%dl
 8049a4c:	0f 94 c1             	sete   %cl
 8049a4f:	38 c1                	cmp    %al,%cl
 8049a51:	73 0c                	jae    8049a5f <submitr+0x33a>
 8049a53:	89 d0                	mov    %edx,%eax
 8049a55:	83 e0 df             	and    $0xffffffdf,%eax
 8049a58:	83 e8 41             	sub    $0x41,%eax
 8049a5b:	3c 19                	cmp    $0x19,%al
 8049a5d:	77 08                	ja     8049a67 <submitr+0x342>
 8049a5f:	88 55 00             	mov    %dl,0x0(%ebp)
 8049a62:	8d 6d 01             	lea    0x1(%ebp),%ebp
 8049a65:	eb 62                	jmp    8049ac9 <submitr+0x3a4>
 8049a67:	80 fa 20             	cmp    $0x20,%dl
 8049a6a:	75 09                	jne    8049a75 <submitr+0x350>
 8049a6c:	c6 45 00 2b          	movb   $0x2b,0x0(%ebp)
 8049a70:	8d 6d 01             	lea    0x1(%ebp),%ebp
 8049a73:	eb 54                	jmp    8049ac9 <submitr+0x3a4>
 8049a75:	8d 42 e0             	lea    -0x20(%edx),%eax
 8049a78:	3c 5f                	cmp    $0x5f,%al
 8049a7a:	76 09                	jbe    8049a85 <submitr+0x360>
 8049a7c:	80 fa 09             	cmp    $0x9,%dl
 8049a7f:	0f 85 bb 03 00 00    	jne    8049e40 <submitr+0x71b>
 8049a85:	83 ec 0c             	sub    $0xc,%esp
 8049a88:	0f b6 d2             	movzbl %dl,%edx
 8049a8b:	52                   	push   %edx
 8049a8c:	68 54 ab 04 08       	push   $0x804ab54
 8049a91:	6a 08                	push   $0x8
 8049a93:	6a 01                	push   $0x1
 8049a95:	8d 84 24 68 80 00 00 	lea    0x8068(%esp),%eax
 8049a9c:	50                   	push   %eax
 8049a9d:	e8 be ee ff ff       	call   8048960 <__sprintf_chk@plt>
 8049aa2:	0f b6 84 24 6c 80 00 	movzbl 0x806c(%esp),%eax
 8049aa9:	00 
 8049aaa:	88 45 00             	mov    %al,0x0(%ebp)
 8049aad:	0f b6 84 24 6d 80 00 	movzbl 0x806d(%esp),%eax
 8049ab4:	00 
 8049ab5:	88 45 01             	mov    %al,0x1(%ebp)
 8049ab8:	0f b6 84 24 6e 80 00 	movzbl 0x806e(%esp),%eax
 8049abf:	00 
 8049ac0:	88 45 02             	mov    %al,0x2(%ebp)
 8049ac3:	83 c4 20             	add    $0x20,%esp
 8049ac6:	8d 6d 03             	lea    0x3(%ebp),%ebp
 8049ac9:	83 c3 01             	add    $0x1,%ebx
 8049acc:	83 ee 01             	sub    $0x1,%esi
 8049acf:	0f 85 5a ff ff ff    	jne    8049a2f <submitr+0x30a>
 8049ad5:	e9 aa 03 00 00       	jmp    8049e84 <submitr+0x75f>
 8049ada:	83 ec 04             	sub    $0x4,%esp
 8049add:	53                   	push   %ebx
 8049ade:	56                   	push   %esi
 8049adf:	55                   	push   %ebp
 8049ae0:	e8 ab ed ff ff       	call   8048890 <write@plt>
 8049ae5:	83 c4 10             	add    $0x10,%esp
 8049ae8:	85 c0                	test   %eax,%eax
 8049aea:	7f 0f                	jg     8049afb <submitr+0x3d6>
 8049aec:	e8 df ed ff ff       	call   80488d0 <__errno_location@plt>
 8049af1:	83 38 04             	cmpl   $0x4,(%eax)
 8049af4:	75 0f                	jne    8049b05 <submitr+0x3e0>
 8049af6:	b8 00 00 00 00       	mov    $0x0,%eax
 8049afb:	01 c6                	add    %eax,%esi
 8049afd:	29 c3                	sub    %eax,%ebx
 8049aff:	75 d9                	jne    8049ada <submitr+0x3b5>
 8049b01:	85 ff                	test   %edi,%edi
 8049b03:	79 69                	jns    8049b6e <submitr+0x449>
 8049b05:	8b 44 24 18          	mov    0x18(%esp),%eax
 8049b09:	c7 00 45 72 72 6f    	movl   $0x6f727245,(%eax)
 8049b0f:	c7 40 04 72 3a 20 43 	movl   $0x43203a72,0x4(%eax)
 8049b16:	c7 40 08 6c 69 65 6e 	movl   $0x6e65696c,0x8(%eax)
 8049b1d:	c7 40 0c 74 20 75 6e 	movl   $0x6e752074,0xc(%eax)
 8049b24:	c7 40 10 61 62 6c 65 	movl   $0x656c6261,0x10(%eax)
 8049b2b:	c7 40 14 20 74 6f 20 	movl   $0x206f7420,0x14(%eax)
 8049b32:	c7 40 18 77 72 69 74 	movl   $0x74697277,0x18(%eax)
 8049b39:	c7 40 1c 65 20 74 6f 	movl   $0x6f742065,0x1c(%eax)
 8049b40:	c7 40 20 20 74 68 65 	movl   $0x65687420,0x20(%eax)
 8049b47:	c7 40 24 20 73 65 72 	movl   $0x72657320,0x24(%eax)
 8049b4e:	c7 40 28 76 65 72 00 	movl   $0x726576,0x28(%eax)
 8049b55:	83 ec 0c             	sub    $0xc,%esp
 8049b58:	ff 74 24 14          	pushl  0x14(%esp)
 8049b5c:	e8 df ed ff ff       	call   8048940 <close@plt>
 8049b61:	83 c4 10             	add    $0x10,%esp
 8049b64:	b8 ff ff ff ff       	mov    $0xffffffff,%eax
 8049b69:	e9 b9 02 00 00       	jmp    8049e27 <submitr+0x702>
 8049b6e:	8b 44 24 08          	mov    0x8(%esp),%eax
 8049b72:	89 44 24 40          	mov    %eax,0x40(%esp)
 8049b76:	c7 44 24 44 00 00 00 	movl   $0x0,0x44(%esp)
 8049b7d:	00 
 8049b7e:	8d 44 24 4c          	lea    0x4c(%esp),%eax
 8049b82:	89 44 24 48          	mov    %eax,0x48(%esp)
 8049b86:	b9 00 20 00 00       	mov    $0x2000,%ecx
 8049b8b:	8d 94 24 4c 20 00 00 	lea    0x204c(%esp),%edx
 8049b92:	8d 44 24 40          	lea    0x40(%esp),%eax
 8049b96:	e8 b6 fa ff ff       	call   8049651 <rio_readlineb>
 8049b9b:	85 c0                	test   %eax,%eax
 8049b9d:	7f 7d                	jg     8049c1c <submitr+0x4f7>
 8049b9f:	8b 44 24 18          	mov    0x18(%esp),%eax
 8049ba3:	c7 00 45 72 72 6f    	movl   $0x6f727245,(%eax)
 8049ba9:	c7 40 04 72 3a 20 43 	movl   $0x43203a72,0x4(%eax)
 8049bb0:	c7 40 08 6c 69 65 6e 	movl   $0x6e65696c,0x8(%eax)
 8049bb7:	c7 40 0c 74 20 75 6e 	movl   $0x6e752074,0xc(%eax)
 8049bbe:	c7 40 10 61 62 6c 65 	movl   $0x656c6261,0x10(%eax)
 8049bc5:	c7 40 14 20 74 6f 20 	movl   $0x206f7420,0x14(%eax)
 8049bcc:	c7 40 18 72 65 61 64 	movl   $0x64616572,0x18(%eax)
 8049bd3:	c7 40 1c 20 66 69 72 	movl   $0x72696620,0x1c(%eax)
 8049bda:	c7 40 20 73 74 20 68 	movl   $0x68207473,0x20(%eax)
 8049be1:	c7 40 24 65 61 64 65 	movl   $0x65646165,0x24(%eax)
 8049be8:	c7 40 28 72 20 66 72 	movl   $0x72662072,0x28(%eax)
 8049bef:	c7 40 2c 6f 6d 20 73 	movl   $0x73206d6f,0x2c(%eax)
 8049bf6:	c7 40 30 65 72 76 65 	movl   $0x65767265,0x30(%eax)
 8049bfd:	66 c7 40 34 72 00    	movw   $0x72,0x34(%eax)
 8049c03:	83 ec 0c             	sub    $0xc,%esp
 8049c06:	ff 74 24 14          	pushl  0x14(%esp)
 8049c0a:	e8 31 ed ff ff       	call   8048940 <close@plt>
 8049c0f:	83 c4 10             	add    $0x10,%esp
 8049c12:	b8 ff ff ff ff       	mov    $0xffffffff,%eax
 8049c17:	e9 0b 02 00 00       	jmp    8049e27 <submitr+0x702>
 8049c1c:	83 ec 0c             	sub    $0xc,%esp
 8049c1f:	8d 84 24 58 80 00 00 	lea    0x8058(%esp),%eax
 8049c26:	50                   	push   %eax
 8049c27:	8d 44 24 3c          	lea    0x3c(%esp),%eax
 8049c2b:	50                   	push   %eax
 8049c2c:	8d 84 24 60 60 00 00 	lea    0x6060(%esp),%eax
 8049c33:	50                   	push   %eax
 8049c34:	68 5b ab 04 08       	push   $0x804ab5b
 8049c39:	8d 84 24 68 20 00 00 	lea    0x2068(%esp),%eax
 8049c40:	50                   	push   %eax
 8049c41:	e8 6a ec ff ff       	call   80488b0 <__isoc99_sscanf@plt>
 8049c46:	8b 44 24 4c          	mov    0x4c(%esp),%eax
 8049c4a:	83 c4 20             	add    $0x20,%esp
 8049c4d:	3d c8 00 00 00       	cmp    $0xc8,%eax
 8049c52:	0f 84 c4 00 00 00    	je     8049d1c <submitr+0x5f7>
 8049c58:	83 ec 08             	sub    $0x8,%esp
 8049c5b:	8d 94 24 54 80 00 00 	lea    0x8054(%esp),%edx
 8049c62:	52                   	push   %edx
 8049c63:	50                   	push   %eax
 8049c64:	68 6c aa 04 08       	push   $0x804aa6c
 8049c69:	6a ff                	push   $0xffffffff
 8049c6b:	6a 01                	push   $0x1
 8049c6d:	ff 74 24 34          	pushl  0x34(%esp)
 8049c71:	e8 ea ec ff ff       	call   8048960 <__sprintf_chk@plt>
 8049c76:	83 c4 14             	add    $0x14,%esp
 8049c79:	ff 74 24 14          	pushl  0x14(%esp)
 8049c7d:	e8 be ec ff ff       	call   8048940 <close@plt>
 8049c82:	83 c4 10             	add    $0x10,%esp
 8049c85:	b8 ff ff ff ff       	mov    $0xffffffff,%eax
 8049c8a:	e9 98 01 00 00       	jmp    8049e27 <submitr+0x702>
 8049c8f:	b9 00 20 00 00       	mov    $0x2000,%ecx
 8049c94:	8d 94 24 4c 20 00 00 	lea    0x204c(%esp),%edx
 8049c9b:	8d 44 24 40          	lea    0x40(%esp),%eax
 8049c9f:	e8 ad f9 ff ff       	call   8049651 <rio_readlineb>
 8049ca4:	85 c0                	test   %eax,%eax
 8049ca6:	7f 74                	jg     8049d1c <submitr+0x5f7>
 8049ca8:	8b 44 24 18          	mov    0x18(%esp),%eax
 8049cac:	c7 00 45 72 72 6f    	movl   $0x6f727245,(%eax)
 8049cb2:	c7 40 04 72 3a 20 43 	movl   $0x43203a72,0x4(%eax)
 8049cb9:	c7 40 08 6c 69 65 6e 	movl   $0x6e65696c,0x8(%eax)
 8049cc0:	c7 40 0c 74 20 75 6e 	movl   $0x6e752074,0xc(%eax)
 8049cc7:	c7 40 10 61 62 6c 65 	movl   $0x656c6261,0x10(%eax)
 8049cce:	c7 40 14 20 74 6f 20 	movl   $0x206f7420,0x14(%eax)
 8049cd5:	c7 40 18 72 65 61 64 	movl   $0x64616572,0x18(%eax)
 8049cdc:	c7 40 1c 20 68 65 61 	movl   $0x61656820,0x1c(%eax)
 8049ce3:	c7 40 20 64 65 72 73 	movl   $0x73726564,0x20(%eax)
 8049cea:	c7 40 24 20 66 72 6f 	movl   $0x6f726620,0x24(%eax)
 8049cf1:	c7 40 28 6d 20 73 65 	movl   $0x6573206d,0x28(%eax)
 8049cf8:	c7 40 2c 72 76 65 72 	movl   $0x72657672,0x2c(%eax)
 8049cff:	c6 40 30 00          	movb   $0x0,0x30(%eax)
 8049d03:	83 ec 0c             	sub    $0xc,%esp
 8049d06:	ff 74 24 14          	pushl  0x14(%esp)
 8049d0a:	e8 31 ec ff ff       	call   8048940 <close@plt>
 8049d0f:	83 c4 10             	add    $0x10,%esp
 8049d12:	b8 ff ff ff ff       	mov    $0xffffffff,%eax
 8049d17:	e9 0b 01 00 00       	jmp    8049e27 <submitr+0x702>
 8049d1c:	80 bc 24 4c 20 00 00 	cmpb   $0xd,0x204c(%esp)
 8049d23:	0d 
 8049d24:	0f 85 65 ff ff ff    	jne    8049c8f <submitr+0x56a>
 8049d2a:	80 bc 24 4d 20 00 00 	cmpb   $0xa,0x204d(%esp)
 8049d31:	0a 
 8049d32:	0f 85 57 ff ff ff    	jne    8049c8f <submitr+0x56a>
 8049d38:	80 bc 24 4e 20 00 00 	cmpb   $0x0,0x204e(%esp)
 8049d3f:	00 
 8049d40:	0f 85 49 ff ff ff    	jne    8049c8f <submitr+0x56a>
 8049d46:	b9 00 20 00 00       	mov    $0x2000,%ecx
 8049d4b:	8d 94 24 4c 20 00 00 	lea    0x204c(%esp),%edx
 8049d52:	8d 44 24 40          	lea    0x40(%esp),%eax
 8049d56:	e8 f6 f8 ff ff       	call   8049651 <rio_readlineb>
 8049d5b:	85 c0                	test   %eax,%eax
 8049d5d:	7f 7b                	jg     8049dda <submitr+0x6b5>
 8049d5f:	8b 44 24 18          	mov    0x18(%esp),%eax
 8049d63:	c7 00 45 72 72 6f    	movl   $0x6f727245,(%eax)
 8049d69:	c7 40 04 72 3a 20 43 	movl   $0x43203a72,0x4(%eax)
 8049d70:	c7 40 08 6c 69 65 6e 	movl   $0x6e65696c,0x8(%eax)
 8049d77:	c7 40 0c 74 20 75 6e 	movl   $0x6e752074,0xc(%eax)
 8049d7e:	c7 40 10 61 62 6c 65 	movl   $0x656c6261,0x10(%eax)
 8049d85:	c7 40 14 20 74 6f 20 	movl   $0x206f7420,0x14(%eax)
 8049d8c:	c7 40 18 72 65 61 64 	movl   $0x64616572,0x18(%eax)
 8049d93:	c7 40 1c 20 73 74 61 	movl   $0x61747320,0x1c(%eax)
 8049d9a:	c7 40 20 74 75 73 20 	movl   $0x20737574,0x20(%eax)
 8049da1:	c7 40 24 6d 65 73 73 	movl   $0x7373656d,0x24(%eax)
 8049da8:	c7 40 28 61 67 65 20 	movl   $0x20656761,0x28(%eax)
 8049daf:	c7 40 2c 66 72 6f 6d 	movl   $0x6d6f7266,0x2c(%eax)
 8049db6:	c7 40 30 20 73 65 72 	movl   $0x72657320,0x30(%eax)
 8049dbd:	c7 40 34 76 65 72 00 	movl   $0x726576,0x34(%eax)
 8049dc4:	83 ec 0c             	sub    $0xc,%esp
 8049dc7:	ff 74 24 14          	pushl  0x14(%esp)
 8049dcb:	e8 70 eb ff ff       	call   8048940 <close@plt>
 8049dd0:	83 c4 10             	add    $0x10,%esp
 8049dd3:	b8 ff ff ff ff       	mov    $0xffffffff,%eax
 8049dd8:	eb 4d                	jmp    8049e27 <submitr+0x702>
 8049dda:	83 ec 08             	sub    $0x8,%esp
 8049ddd:	8d 84 24 54 20 00 00 	lea    0x2054(%esp),%eax
 8049de4:	50                   	push   %eax
 8049de5:	8b 7c 24 24          	mov    0x24(%esp),%edi
 8049de9:	57                   	push   %edi
 8049dea:	e8 21 ea ff ff       	call   8048810 <strcpy@plt>
 8049def:	83 c4 04             	add    $0x4,%esp
 8049df2:	ff 74 24 14          	pushl  0x14(%esp)
 8049df6:	e8 45 eb ff ff       	call   8048940 <close@plt>
 8049dfb:	0f b6 17             	movzbl (%edi),%edx
 8049dfe:	b8 4f 00 00 00       	mov    $0x4f,%eax
 8049e03:	83 c4 10             	add    $0x10,%esp
 8049e06:	29 d0                	sub    %edx,%eax
 8049e08:	75 13                	jne    8049e1d <submitr+0x6f8>
 8049e0a:	0f b6 57 01          	movzbl 0x1(%edi),%edx
 8049e0e:	b8 4b 00 00 00       	mov    $0x4b,%eax
 8049e13:	29 d0                	sub    %edx,%eax
 8049e15:	75 06                	jne    8049e1d <submitr+0x6f8>
 8049e17:	0f b6 47 02          	movzbl 0x2(%edi),%eax
 8049e1b:	f7 d8                	neg    %eax
 8049e1d:	85 c0                	test   %eax,%eax
 8049e1f:	0f 95 c0             	setne  %al
 8049e22:	0f b6 c0             	movzbl %al,%eax
 8049e25:	f7 d8                	neg    %eax
 8049e27:	8b bc 24 4c a0 00 00 	mov    0xa04c(%esp),%edi
 8049e2e:	65 33 3d 14 00 00 00 	xor    %gs:0x14,%edi
 8049e35:	0f 84 a9 00 00 00    	je     8049ee4 <submitr+0x7bf>
 8049e3b:	e9 9f 00 00 00       	jmp    8049edf <submitr+0x7ba>
 8049e40:	a1 9c aa 04 08       	mov    0x804aa9c,%eax
 8049e45:	8b 7c 24 18          	mov    0x18(%esp),%edi
 8049e49:	89 07                	mov    %eax,(%edi)
 8049e4b:	a1 db aa 04 08       	mov    0x804aadb,%eax
 8049e50:	89 47 3f             	mov    %eax,0x3f(%edi)
 8049e53:	89 f8                	mov    %edi,%eax
 8049e55:	83 c7 04             	add    $0x4,%edi
 8049e58:	83 e7 fc             	and    $0xfffffffc,%edi
 8049e5b:	29 f8                	sub    %edi,%eax
 8049e5d:	be 9c aa 04 08       	mov    $0x804aa9c,%esi
 8049e62:	29 c6                	sub    %eax,%esi
 8049e64:	83 c0 43             	add    $0x43,%eax
 8049e67:	c1 e8 02             	shr    $0x2,%eax
 8049e6a:	89 c1                	mov    %eax,%ecx
 8049e6c:	f3 a5                	rep movsl %ds:(%esi),%es:(%edi)
 8049e6e:	83 ec 0c             	sub    $0xc,%esp
 8049e71:	ff 74 24 14          	pushl  0x14(%esp)
 8049e75:	e8 c6 ea ff ff       	call   8048940 <close@plt>
 8049e7a:	83 c4 10             	add    $0x10,%esp
 8049e7d:	b8 ff ff ff ff       	mov    $0xffffffff,%eax
 8049e82:	eb a3                	jmp    8049e27 <submitr+0x702>
 8049e84:	8d 84 24 4c 40 00 00 	lea    0x404c(%esp),%eax
 8049e8b:	50                   	push   %eax
 8049e8c:	ff 74 24 18          	pushl  0x18(%esp)
 8049e90:	ff 74 24 18          	pushl  0x18(%esp)
 8049e94:	ff 74 24 18          	pushl  0x18(%esp)
 8049e98:	68 e0 aa 04 08       	push   $0x804aae0
 8049e9d:	68 00 20 00 00       	push   $0x2000
 8049ea2:	6a 01                	push   $0x1
 8049ea4:	8d bc 24 68 20 00 00 	lea    0x2068(%esp),%edi
 8049eab:	57                   	push   %edi
 8049eac:	e8 af ea ff ff       	call   8048960 <__sprintf_chk@plt>
 8049eb1:	b8 00 00 00 00       	mov    $0x0,%eax
 8049eb6:	b9 ff ff ff ff       	mov    $0xffffffff,%ecx
 8049ebb:	f2 ae                	repnz scas %es:(%edi),%al
 8049ebd:	f7 d1                	not    %ecx
 8049ebf:	8d 79 ff             	lea    -0x1(%ecx),%edi
 8049ec2:	83 c4 20             	add    $0x20,%esp
 8049ec5:	89 fb                	mov    %edi,%ebx
 8049ec7:	8d b4 24 4c 20 00 00 	lea    0x204c(%esp),%esi
 8049ece:	8b 6c 24 08          	mov    0x8(%esp),%ebp
 8049ed2:	85 ff                	test   %edi,%edi
 8049ed4:	0f 85 00 fc ff ff    	jne    8049ada <submitr+0x3b5>
 8049eda:	e9 8f fc ff ff       	jmp    8049b6e <submitr+0x449>
 8049edf:	e8 1c e9 ff ff       	call   8048800 <__stack_chk_fail@plt>
 8049ee4:	81 c4 5c a0 00 00    	add    $0xa05c,%esp
 8049eea:	5b                   	pop    %ebx
 8049eeb:	5e                   	pop    %esi
 8049eec:	5f                   	pop    %edi
 8049eed:	5d                   	pop    %ebp
 8049eee:	c3                   	ret    

08049eef <init_timeout>:
 8049eef:	53                   	push   %ebx
 8049ef0:	83 ec 08             	sub    $0x8,%esp
 8049ef3:	8b 5c 24 10          	mov    0x10(%esp),%ebx
 8049ef7:	85 db                	test   %ebx,%ebx
 8049ef9:	74 24                	je     8049f1f <init_timeout+0x30>
 8049efb:	83 ec 08             	sub    $0x8,%esp
 8049efe:	68 2e 96 04 08       	push   $0x804962e
 8049f03:	6a 0e                	push   $0xe
 8049f05:	e8 c6 e8 ff ff       	call   80487d0 <signal@plt>
 8049f0a:	85 db                	test   %ebx,%ebx
 8049f0c:	b8 00 00 00 00       	mov    $0x0,%eax
 8049f11:	0f 48 d8             	cmovs  %eax,%ebx
 8049f14:	89 1c 24             	mov    %ebx,(%esp)
 8049f17:	e8 d4 e8 ff ff       	call   80487f0 <alarm@plt>
 8049f1c:	83 c4 10             	add    $0x10,%esp
 8049f1f:	83 c4 08             	add    $0x8,%esp
 8049f22:	5b                   	pop    %ebx
 8049f23:	c3                   	ret    

08049f24 <init_driver>:
 8049f24:	57                   	push   %edi
 8049f25:	56                   	push   %esi
 8049f26:	53                   	push   %ebx
 8049f27:	83 ec 28             	sub    $0x28,%esp
 8049f2a:	8b 74 24 38          	mov    0x38(%esp),%esi
 8049f2e:	65 a1 14 00 00 00    	mov    %gs:0x14,%eax
 8049f34:	89 44 24 24          	mov    %eax,0x24(%esp)
 8049f38:	31 c0                	xor    %eax,%eax
 8049f3a:	6a 01                	push   $0x1
 8049f3c:	6a 0d                	push   $0xd
 8049f3e:	e8 8d e8 ff ff       	call   80487d0 <signal@plt>
 8049f43:	83 c4 08             	add    $0x8,%esp
 8049f46:	6a 01                	push   $0x1
 8049f48:	6a 1d                	push   $0x1d
 8049f4a:	e8 81 e8 ff ff       	call   80487d0 <signal@plt>
 8049f4f:	83 c4 08             	add    $0x8,%esp
 8049f52:	6a 01                	push   $0x1
 8049f54:	6a 1d                	push   $0x1d
 8049f56:	e8 75 e8 ff ff       	call   80487d0 <signal@plt>
 8049f5b:	83 c4 0c             	add    $0xc,%esp
 8049f5e:	6a 00                	push   $0x0
 8049f60:	6a 01                	push   $0x1
 8049f62:	6a 02                	push   $0x2
 8049f64:	e8 87 e9 ff ff       	call   80488f0 <socket@plt>
 8049f69:	83 c4 10             	add    $0x10,%esp
 8049f6c:	85 c0                	test   %eax,%eax
 8049f6e:	79 4e                	jns    8049fbe <init_driver+0x9a>
 8049f70:	c7 06 45 72 72 6f    	movl   $0x6f727245,(%esi)
 8049f76:	c7 46 04 72 3a 20 43 	movl   $0x43203a72,0x4(%esi)
 8049f7d:	c7 46 08 6c 69 65 6e 	movl   $0x6e65696c,0x8(%esi)
 8049f84:	c7 46 0c 74 20 75 6e 	movl   $0x6e752074,0xc(%esi)
 8049f8b:	c7 46 10 61 62 6c 65 	movl   $0x656c6261,0x10(%esi)
 8049f92:	c7 46 14 20 74 6f 20 	movl   $0x206f7420,0x14(%esi)
 8049f99:	c7 46 18 63 72 65 61 	movl   $0x61657263,0x18(%esi)
 8049fa0:	c7 46 1c 74 65 20 73 	movl   $0x73206574,0x1c(%esi)
 8049fa7:	c7 46 20 6f 63 6b 65 	movl   $0x656b636f,0x20(%esi)
 8049fae:	66 c7 46 24 74 00    	movw   $0x74,0x24(%esi)
 8049fb4:	b8 ff ff ff ff       	mov    $0xffffffff,%eax
 8049fb9:	e9 1f 01 00 00       	jmp    804a0dd <init_driver+0x1b9>
 8049fbe:	89 c3                	mov    %eax,%ebx
 8049fc0:	83 ec 0c             	sub    $0xc,%esp
 8049fc3:	68 6c ab 04 08       	push   $0x804ab6c
 8049fc8:	e8 43 e9 ff ff       	call   8048910 <gethostbyname@plt>
 8049fcd:	83 c4 10             	add    $0x10,%esp
 8049fd0:	85 c0                	test   %eax,%eax
 8049fd2:	75 6c                	jne    804a040 <init_driver+0x11c>
 8049fd4:	c7 06 45 72 72 6f    	movl   $0x6f727245,(%esi)
 8049fda:	c7 46 04 72 3a 20 44 	movl   $0x44203a72,0x4(%esi)
 8049fe1:	c7 46 08 4e 53 20 69 	movl   $0x6920534e,0x8(%esi)
 8049fe8:	c7 46 0c 73 20 75 6e 	movl   $0x6e752073,0xc(%esi)
 8049fef:	c7 46 10 61 62 6c 65 	movl   $0x656c6261,0x10(%esi)
 8049ff6:	c7 46 14 20 74 6f 20 	movl   $0x206f7420,0x14(%esi)
 8049ffd:	c7 46 18 72 65 73 6f 	movl   $0x6f736572,0x18(%esi)
 804a004:	c7 46 1c 6c 76 65 20 	movl   $0x2065766c,0x1c(%esi)
 804a00b:	c7 46 20 73 65 72 76 	movl   $0x76726573,0x20(%esi)
 804a012:	c7 46 24 65 72 20 61 	movl   $0x61207265,0x24(%esi)
 804a019:	c7 46 28 64 64 72 65 	movl   $0x65726464,0x28(%esi)
 804a020:	66 c7 46 2c 73 73    	movw   $0x7373,0x2c(%esi)
 804a026:	c6 46 2e 00          	movb   $0x0,0x2e(%esi)
 804a02a:	83 ec 0c             	sub    $0xc,%esp
 804a02d:	53                   	push   %ebx
 804a02e:	e8 0d e9 ff ff       	call   8048940 <close@plt>
 804a033:	83 c4 10             	add    $0x10,%esp
 804a036:	b8 ff ff ff ff       	mov    $0xffffffff,%eax
 804a03b:	e9 9d 00 00 00       	jmp    804a0dd <init_driver+0x1b9>
 804a040:	8d 7c 24 0c          	lea    0xc(%esp),%edi
 804a044:	c7 44 24 0c 00 00 00 	movl   $0x0,0xc(%esp)
 804a04b:	00 
 804a04c:	c7 44 24 10 00 00 00 	movl   $0x0,0x10(%esp)
 804a053:	00 
 804a054:	c7 44 24 14 00 00 00 	movl   $0x0,0x14(%esp)
 804a05b:	00 
 804a05c:	c7 44 24 18 00 00 00 	movl   $0x0,0x18(%esp)
 804a063:	00 
 804a064:	66 c7 44 24 0c 02 00 	movw   $0x2,0xc(%esp)
 804a06b:	6a 0c                	push   $0xc
 804a06d:	ff 70 0c             	pushl  0xc(%eax)
 804a070:	8b 40 10             	mov    0x10(%eax),%eax
 804a073:	ff 30                	pushl  (%eax)
 804a075:	8d 44 24 1c          	lea    0x1c(%esp),%eax
 804a079:	50                   	push   %eax
 804a07a:	e8 e1 e7 ff ff       	call   8048860 <__memmove_chk@plt>
 804a07f:	66 c7 44 24 1e 43 31 	movw   $0x3143,0x1e(%esp)
 804a086:	83 c4 0c             	add    $0xc,%esp
 804a089:	6a 10                	push   $0x10
 804a08b:	57                   	push   %edi
 804a08c:	53                   	push   %ebx
 804a08d:	e8 9e e8 ff ff       	call   8048930 <connect@plt>
 804a092:	83 c4 10             	add    $0x10,%esp
 804a095:	85 c0                	test   %eax,%eax
 804a097:	79 2a                	jns    804a0c3 <init_driver+0x19f>
 804a099:	83 ec 0c             	sub    $0xc,%esp
 804a09c:	68 6c ab 04 08       	push   $0x804ab6c
 804a0a1:	68 2c ab 04 08       	push   $0x804ab2c
 804a0a6:	6a ff                	push   $0xffffffff
 804a0a8:	6a 01                	push   $0x1
 804a0aa:	56                   	push   %esi
 804a0ab:	e8 b0 e8 ff ff       	call   8048960 <__sprintf_chk@plt>
 804a0b0:	83 c4 14             	add    $0x14,%esp
 804a0b3:	53                   	push   %ebx
 804a0b4:	e8 87 e8 ff ff       	call   8048940 <close@plt>
 804a0b9:	83 c4 10             	add    $0x10,%esp
 804a0bc:	b8 ff ff ff ff       	mov    $0xffffffff,%eax
 804a0c1:	eb 1a                	jmp    804a0dd <init_driver+0x1b9>
 804a0c3:	83 ec 0c             	sub    $0xc,%esp
 804a0c6:	53                   	push   %ebx
 804a0c7:	e8 74 e8 ff ff       	call   8048940 <close@plt>
 804a0cc:	66 c7 06 4f 4b       	movw   $0x4b4f,(%esi)
 804a0d1:	c6 46 02 00          	movb   $0x0,0x2(%esi)
 804a0d5:	83 c4 10             	add    $0x10,%esp
 804a0d8:	b8 00 00 00 00       	mov    $0x0,%eax
 804a0dd:	8b 54 24 1c          	mov    0x1c(%esp),%edx
 804a0e1:	65 33 15 14 00 00 00 	xor    %gs:0x14,%edx
 804a0e8:	74 05                	je     804a0ef <init_driver+0x1cb>
 804a0ea:	e8 11 e7 ff ff       	call   8048800 <__stack_chk_fail@plt>
 804a0ef:	83 c4 20             	add    $0x20,%esp
 804a0f2:	5b                   	pop    %ebx
 804a0f3:	5e                   	pop    %esi
 804a0f4:	5f                   	pop    %edi
 804a0f5:	c3                   	ret    

0804a0f6 <driver_post>:
 804a0f6:	53                   	push   %ebx
 804a0f7:	83 ec 08             	sub    $0x8,%esp
 804a0fa:	8b 44 24 10          	mov    0x10(%esp),%eax
 804a0fe:	8b 5c 24 1c          	mov    0x1c(%esp),%ebx
 804a102:	83 7c 24 18 00       	cmpl   $0x0,0x18(%esp)
 804a107:	74 26                	je     804a12f <driver_post+0x39>
 804a109:	83 ec 04             	sub    $0x4,%esp
 804a10c:	ff 74 24 18          	pushl  0x18(%esp)
 804a110:	68 80 ab 04 08       	push   $0x804ab80
 804a115:	6a 01                	push   $0x1
 804a117:	e8 c4 e7 ff ff       	call   80488e0 <__printf_chk@plt>
 804a11c:	66 c7 03 4f 4b       	movw   $0x4b4f,(%ebx)
 804a121:	c6 43 02 00          	movb   $0x0,0x2(%ebx)
 804a125:	83 c4 10             	add    $0x10,%esp
 804a128:	b8 00 00 00 00       	mov    $0x0,%eax
 804a12d:	eb 3e                	jmp    804a16d <driver_post+0x77>
 804a12f:	85 c0                	test   %eax,%eax
 804a131:	74 2c                	je     804a15f <driver_post+0x69>
 804a133:	80 38 00             	cmpb   $0x0,(%eax)
 804a136:	74 27                	je     804a15f <driver_post+0x69>
 804a138:	83 ec 04             	sub    $0x4,%esp
 804a13b:	53                   	push   %ebx
 804a13c:	ff 74 24 1c          	pushl  0x1c(%esp)
 804a140:	68 97 ab 04 08       	push   $0x804ab97
 804a145:	50                   	push   %eax
 804a146:	68 9e ab 04 08       	push   $0x804ab9e
 804a14b:	68 31 43 00 00       	push   $0x4331
 804a150:	68 6c ab 04 08       	push   $0x804ab6c
 804a155:	e8 cb f5 ff ff       	call   8049725 <submitr>
 804a15a:	83 c4 20             	add    $0x20,%esp
 804a15d:	eb 0e                	jmp    804a16d <driver_post+0x77>
 804a15f:	66 c7 03 4f 4b       	movw   $0x4b4f,(%ebx)
 804a164:	c6 43 02 00          	movb   $0x0,0x2(%ebx)
 804a168:	b8 00 00 00 00       	mov    $0x0,%eax
 804a16d:	83 c4 08             	add    $0x8,%esp
 804a170:	5b                   	pop    %ebx
 804a171:	c3                   	ret    
 804a172:	66 90                	xchg   %ax,%ax
 804a174:	66 90                	xchg   %ax,%ax
 804a176:	66 90                	xchg   %ax,%ax
 804a178:	66 90                	xchg   %ax,%ax
 804a17a:	66 90                	xchg   %ax,%ax
 804a17c:	66 90                	xchg   %ax,%ax
 804a17e:	66 90                	xchg   %ax,%ax

0804a180 <__libc_csu_init>:
 804a180:	55                   	push   %ebp
 804a181:	57                   	push   %edi
 804a182:	56                   	push   %esi
 804a183:	53                   	push   %ebx
 804a184:	e8 27 e8 ff ff       	call   80489b0 <__x86.get_pc_thunk.bx>
 804a189:	81 c3 77 2e 00 00    	add    $0x2e77,%ebx
 804a18f:	83 ec 0c             	sub    $0xc,%esp
 804a192:	8b 6c 24 20          	mov    0x20(%esp),%ebp
 804a196:	8d b3 0c ff ff ff    	lea    -0xf4(%ebx),%esi
 804a19c:	e8 bf e5 ff ff       	call   8048760 <_init>
 804a1a1:	8d 83 08 ff ff ff    	lea    -0xf8(%ebx),%eax
 804a1a7:	29 c6                	sub    %eax,%esi
 804a1a9:	c1 fe 02             	sar    $0x2,%esi
 804a1ac:	85 f6                	test   %esi,%esi
 804a1ae:	74 25                	je     804a1d5 <__libc_csu_init+0x55>
 804a1b0:	31 ff                	xor    %edi,%edi
 804a1b2:	8d b6 00 00 00 00    	lea    0x0(%esi),%esi
 804a1b8:	83 ec 04             	sub    $0x4,%esp
 804a1bb:	ff 74 24 2c          	pushl  0x2c(%esp)
 804a1bf:	ff 74 24 2c          	pushl  0x2c(%esp)
 804a1c3:	55                   	push   %ebp
 804a1c4:	ff 94 bb 08 ff ff ff 	call   *-0xf8(%ebx,%edi,4)
 804a1cb:	83 c7 01             	add    $0x1,%edi
 804a1ce:	83 c4 10             	add    $0x10,%esp
 804a1d1:	39 f7                	cmp    %esi,%edi
 804a1d3:	75 e3                	jne    804a1b8 <__libc_csu_init+0x38>
 804a1d5:	83 c4 0c             	add    $0xc,%esp
 804a1d8:	5b                   	pop    %ebx
 804a1d9:	5e                   	pop    %esi
 804a1da:	5f                   	pop    %edi
 804a1db:	5d                   	pop    %ebp
 804a1dc:	c3                   	ret    
 804a1dd:	8d 76 00             	lea    0x0(%esi),%esi

0804a1e0 <__libc_csu_fini>:
 804a1e0:	f3 c3                	repz ret 

Disassembly of section .fini:

0804a1e4 <_fini>:
 804a1e4:	53                   	push   %ebx
 804a1e5:	83 ec 08             	sub    $0x8,%esp
 804a1e8:	e8 c3 e7 ff ff       	call   80489b0 <__x86.get_pc_thunk.bx>
 804a1ed:	81 c3 13 2e 00 00    	add    $0x2e13,%ebx
 804a1f3:	83 c4 08             	add    $0x8,%esp
 804a1f6:	5b                   	pop    %ebx
 804a1f7:	c3                   	ret    
